SF:/home/solinaire/dev/personal/metrovector/src/builder.rs
FN:211,_RINvMNtCsg0Tzsq7wD3a_11metrovector7builderNtB3_10MvfBuilder19add_metadata_columnpEB5_
FN:345,_RNvMs_NtCsg0Tzsq7wD3a_11metrovector7builderNtB4_21VectorSpaceBuilderRef11vector_type
FN:369,_RNvMs_NtCsg0Tzsq7wD3a_11metrovector7builderNtB4_21VectorSpaceBuilderRef14with_ivf_index
FN:351,_RNvMs_NtCsg0Tzsq7wD3a_11metrovector7builderNtB4_21VectorSpaceBuilderRef15distance_metric
FN:363,_RNvMs_NtCsg0Tzsq7wD3a_11metrovector7builderNtB4_21VectorSpaceBuilderRef15with_flat_index
FN:380,_RNvMs_NtCsg0Tzsq7wD3a_11metrovector7builderNtB4_21VectorSpaceBuilderRef15with_hnsw_index
FN:357,_RNvMs_NtCsg0Tzsq7wD3a_11metrovector7builderNtB4_21VectorSpaceBuilderRef9data_type
FN:339,_RNvMs_NtCsg0Tzsq7wD3a_11metrovector7builderNtB4_21VectorSpaceBuilderRef9dimension
FN:316,_RNvMNtCsg0Tzsq7wD3a_11metrovector7builderNtB2_10MvfBuilder10add_string
FN:113,_RNvMNtCsg0Tzsq7wD3a_11metrovector7builderNtB2_10MvfBuilder16add_vector_space
FN:311,_RNvMNtCsg0Tzsq7wD3a_11metrovector7builderNtB2_10MvfBuilder20get_vector_space_mut
FN:93,_RNvMNtCsg0Tzsq7wD3a_11metrovector7builderNtB2_10MvfBuilder3new
FN:241,_RNvMNtCsg0Tzsq7wD3a_11metrovector7builderNtB2_10MvfBuilder5build
FN:98,_RNvMNtCsg0Tzsq7wD3a_11metrovector7builderNtB2_10MvfBuilder7version
FN:417,_RNvMs0_NtCsg0Tzsq7wD3a_11metrovector7builderNtB5_8BuiltMvf8to_bytes
FN:562,_RNvXs1_NtCsg0Tzsq7wD3a_11metrovector7builderNtB5_10MvfBuilderNtNtCs9sjCchOt1K7_4core7default7Default7default
FN:700,_RNvNtNtCsg0Tzsq7wD3a_11metrovector7builder5testss_14test_build_mvf
FN:732,_RNvNtNtCsg0Tzsq7wD3a_11metrovector7builder5testss_19test_built_mvf_save
FN:590,_RNvNtNtCsg0Tzsq7wD3a_11metrovector7builder5testss_21test_add_vector_space
FN:582,_RNvNtNtCsg0Tzsq7wD3a_11metrovector7builder5testss_21test_builder_creation
FN:719,_RNvNtNtCsg0Tzsq7wD3a_11metrovector7builder5testss_23test_built_mvf_to_bytes
FN:606,_RNvNtNtCsg0Tzsq7wD3a_11metrovector7builder5testss_24test_add_vectors_success
FN:914,_RNvNtNtCsg0Tzsq7wD3a_11metrovector7builder5testss_25test_get_vector_space_mut
FN:891,_RNvNtNtCsg0Tzsq7wD3a_11metrovector7builder5testss_27test_string_heap_management
FN:743,_RNvNtNtCsg0Tzsq7wD3a_11metrovector7builder5testss_29test_vector_space_builder_ref
FN:625,_RNvNtNtCsg0Tzsq7wD3a_11metrovector7builder5testss_34test_add_vectors_nonexistent_space
FN:635,_RNvNtNtCsg0Tzsq7wD3a_11metrovector7builder5testss_35test_add_vectors_dimension_mismatch
FN:1016,_RNvNtNtCsg0Tzsq7wD3a_11metrovector7builder5testss_35test_built_mvf_with_complex_indexes
FN:657,_RNvNtNtCsg0Tzsq7wD3a_11metrovector7builder5testss_37test_add_vectors_different_data_types
FN:805,_RNvNtNtCsg0Tzsq7wD3a_11metrovector7builder5testss_37test_vector_space_builder_ref_methods
FN:996,_RNvNtNtCsg0Tzsq7wD3a_11metrovector7builder5testss_38test_add_vectors_unsupported_data_type
FN:836,_RNvNtNtCsg0Tzsq7wD3a_11metrovector7builder5testss_38test_vector_space_index_configurations
FN:978,_RNvNtNtCsg0Tzsq7wD3a_11metrovector7builder5testss_43test_add_vectors_empty_space_auto_dimension
FN:151,_RINvMNtCsg0Tzsq7wD3a_11metrovector7builderNtB3_10MvfBuilder11add_vectorsfEB5_
FN:408,_RINvMs0_NtCsg0Tzsq7wD3a_11metrovector7builderNtB6_8BuiltMvf4saveRNtNtCseJswNlh1fGO_3std4path7PathBufEB8_
FN:158,_RNCINvMNtCsg0Tzsq7wD3a_11metrovector7builderNtB5_10MvfBuilder11add_vectorsfE0B7_
FN:159,_RNCINvMNtCsg0Tzsq7wD3a_11metrovector7builderNtB5_10MvfBuilder11add_vectorsfEs_0B7_
FN:260,_RNCNvMNtCsg0Tzsq7wD3a_11metrovector7builderNtB4_10MvfBuilder5build0B6_
FN:504,_RNCNvMs0_NtCsg0Tzsq7wD3a_11metrovector7builderNtB7_8BuiltMvf8to_bytes0B9_
FN:537,_RNCNvMs0_NtCsg0Tzsq7wD3a_11metrovector7builderNtB7_8BuiltMvf8to_bytess0_0B9_
FN:505,_RNCNvMs0_NtCsg0Tzsq7wD3a_11metrovector7builderNtB7_8BuiltMvf8to_bytess_0B9_
FN:1035,_RNCNCNvNtNtCsg0Tzsq7wD3a_11metrovector7builder5testss_35test_built_mvf_with_complex_indexes00B9_
FN:1035,_RNCNvNtNtCsg0Tzsq7wD3a_11metrovector7builder5testss_35test_built_mvf_with_complex_indexes0B7_
FN:151,_RINvMNtCsiiIhjJT0zrc_11metrovector7builderNtB3_10MvfBuilder11add_vectorsfECs6ar4RpNs37j_10data_types
FN:408,_RINvMs0_NtCsiiIhjJT0zrc_11metrovector7builderNtB6_8BuiltMvf4saveRNtNtCseJswNlh1fGO_3std4path7PathBufECs6ar4RpNs37j_10data_types
FN:158,_RNCINvMNtCsiiIhjJT0zrc_11metrovector7builderNtB5_10MvfBuilder11add_vectorsfE0Cs6ar4RpNs37j_10data_types
FN:159,_RNCINvMNtCsiiIhjJT0zrc_11metrovector7builderNtB5_10MvfBuilder11add_vectorsfEs_0Cs6ar4RpNs37j_10data_types
FN:113,_RNvMNtCsiiIhjJT0zrc_11metrovector7builderNtB2_10MvfBuilder16add_vector_space
FN:93,_RNvMNtCsiiIhjJT0zrc_11metrovector7builderNtB2_10MvfBuilder3new
FN:241,_RNvMNtCsiiIhjJT0zrc_11metrovector7builderNtB2_10MvfBuilder5build
FN:98,_RNvMNtCsiiIhjJT0zrc_11metrovector7builderNtB2_10MvfBuilder7version
FN:417,_RNvMs0_NtCsiiIhjJT0zrc_11metrovector7builderNtB5_8BuiltMvf8to_bytes
FN:345,_RNvMs_NtCsiiIhjJT0zrc_11metrovector7builderNtB4_21VectorSpaceBuilderRef11vector_type
FN:369,_RNvMs_NtCsiiIhjJT0zrc_11metrovector7builderNtB4_21VectorSpaceBuilderRef14with_ivf_index
FN:351,_RNvMs_NtCsiiIhjJT0zrc_11metrovector7builderNtB4_21VectorSpaceBuilderRef15distance_metric
FN:363,_RNvMs_NtCsiiIhjJT0zrc_11metrovector7builderNtB4_21VectorSpaceBuilderRef15with_flat_index
FN:380,_RNvMs_NtCsiiIhjJT0zrc_11metrovector7builderNtB4_21VectorSpaceBuilderRef15with_hnsw_index
FN:357,_RNvMs_NtCsiiIhjJT0zrc_11metrovector7builderNtB4_21VectorSpaceBuilderRef9data_type
FN:339,_RNvMs_NtCsiiIhjJT0zrc_11metrovector7builderNtB4_21VectorSpaceBuilderRef9dimension
FN:562,_RNvXs1_NtCsiiIhjJT0zrc_11metrovector7builderNtB5_10MvfBuilderNtNtCs9sjCchOt1K7_4core7default7Default7default
FN:260,_RNCNvMNtCsiiIhjJT0zrc_11metrovector7builderNtB4_10MvfBuilder5build0B6_
FN:504,_RNCNvMs0_NtCsiiIhjJT0zrc_11metrovector7builderNtB7_8BuiltMvf8to_bytes0B9_
FN:537,_RNCNvMs0_NtCsiiIhjJT0zrc_11metrovector7builderNtB7_8BuiltMvf8to_bytess0_0B9_
FN:505,_RNCNvMs0_NtCsiiIhjJT0zrc_11metrovector7builderNtB7_8BuiltMvf8to_bytess_0B9_
FN:151,_RINvMNtCsiiIhjJT0zrc_11metrovector7builderNtB3_10MvfBuilder11add_vectorspEB5_
FN:211,_RINvMNtCsiiIhjJT0zrc_11metrovector7builderNtB3_10MvfBuilder19add_metadata_columnpEB5_
FN:408,_RINvMs0_NtCsiiIhjJT0zrc_11metrovector7builderNtB6_8BuiltMvf4savepEB8_
FN:158,_RNCINvMNtCsiiIhjJT0zrc_11metrovector7builderNtB5_10MvfBuilder11add_vectorspE0B7_
FN:159,_RNCINvMNtCsiiIhjJT0zrc_11metrovector7builderNtB5_10MvfBuilder11add_vectorspEs_0B7_
FN:316,_RNvMNtCsiiIhjJT0zrc_11metrovector7builderNtB2_10MvfBuilder10add_string
FN:311,_RNvMNtCsiiIhjJT0zrc_11metrovector7builderNtB2_10MvfBuilder20get_vector_space_mut
FN:151,_RINvMNtCsiiIhjJT0zrc_11metrovector7builderNtB3_10MvfBuilder11add_vectorsfECs8c3YdBf7M3P_13large_dataset
FN:408,_RINvMs0_NtCsiiIhjJT0zrc_11metrovector7builderNtB6_8BuiltMvf4saveRNtNtCseJswNlh1fGO_3std4path7PathBufECs8c3YdBf7M3P_13large_dataset
FN:158,_RNCINvMNtCsiiIhjJT0zrc_11metrovector7builderNtB5_10MvfBuilder11add_vectorsfE0Cs8c3YdBf7M3P_13large_dataset
FN:159,_RNCINvMNtCsiiIhjJT0zrc_11metrovector7builderNtB5_10MvfBuilder11add_vectorsfEs_0Cs8c3YdBf7M3P_13large_dataset
FN:151,_RINvMNtCsiiIhjJT0zrc_11metrovector7builderNtB3_10MvfBuilder11add_vectorsfECsgp8hDUHE1qc_17similarity_search
FN:408,_RINvMs0_NtCsiiIhjJT0zrc_11metrovector7builderNtB6_8BuiltMvf4saveRNtNtCseJswNlh1fGO_3std4path7PathBufECsgp8hDUHE1qc_17similarity_search
FN:158,_RNCINvMNtCsiiIhjJT0zrc_11metrovector7builderNtB5_10MvfBuilder11add_vectorsfE0Csgp8hDUHE1qc_17similarity_search
FN:159,_RNCINvMNtCsiiIhjJT0zrc_11metrovector7builderNtB5_10MvfBuilder11add_vectorsfEs_0Csgp8hDUHE1qc_17similarity_search
FN:151,_RINvMNtCsiiIhjJT0zrc_11metrovector7builderNtB3_10MvfBuilder11add_vectorsfECsjbFG1jnGilz_6simple
FN:408,_RINvMs0_NtCsiiIhjJT0zrc_11metrovector7builderNtB6_8BuiltMvf4saveRNtNtCseJswNlh1fGO_3std4path7PathBufECsjbFG1jnGilz_6simple
FN:158,_RNCINvMNtCsiiIhjJT0zrc_11metrovector7builderNtB5_10MvfBuilder11add_vectorsfE0CsjbFG1jnGilz_6simple
FN:159,_RNCINvMNtCsiiIhjJT0zrc_11metrovector7builderNtB5_10MvfBuilder11add_vectorsfEs_0CsjbFG1jnGilz_6simple
FNDA:0,_RINvMNtCsg0Tzsq7wD3a_11metrovector7builderNtB3_10MvfBuilder19add_metadata_columnpEB5_
FNDA:0,_RNvMs_NtCsg0Tzsq7wD3a_11metrovector7builderNtB4_21VectorSpaceBuilderRef11vector_type
FNDA:0,_RNvMs_NtCsg0Tzsq7wD3a_11metrovector7builderNtB4_21VectorSpaceBuilderRef14with_ivf_index
FNDA:0,_RNvMs_NtCsg0Tzsq7wD3a_11metrovector7builderNtB4_21VectorSpaceBuilderRef15distance_metric
FNDA:0,_RNvMs_NtCsg0Tzsq7wD3a_11metrovector7builderNtB4_21VectorSpaceBuilderRef15with_flat_index
FNDA:0,_RNvMs_NtCsg0Tzsq7wD3a_11metrovector7builderNtB4_21VectorSpaceBuilderRef15with_hnsw_index
FNDA:0,_RNvMs_NtCsg0Tzsq7wD3a_11metrovector7builderNtB4_21VectorSpaceBuilderRef9data_type
FNDA:0,_RNvMs_NtCsg0Tzsq7wD3a_11metrovector7builderNtB4_21VectorSpaceBuilderRef9dimension
FNDA:3,_RNvMNtCsg0Tzsq7wD3a_11metrovector7builderNtB2_10MvfBuilder10add_string
FNDA:50,_RNvMNtCsg0Tzsq7wD3a_11metrovector7builderNtB2_10MvfBuilder16add_vector_space
FNDA:2,_RNvMNtCsg0Tzsq7wD3a_11metrovector7builderNtB2_10MvfBuilder20get_vector_space_mut
FNDA:53,_RNvMNtCsg0Tzsq7wD3a_11metrovector7builderNtB2_10MvfBuilder3new
FNDA:39,_RNvMNtCsg0Tzsq7wD3a_11metrovector7builderNtB2_10MvfBuilder5build
FNDA:1,_RNvMNtCsg0Tzsq7wD3a_11metrovector7builderNtB2_10MvfBuilder7version
FNDA:38,_RNvMs0_NtCsg0Tzsq7wD3a_11metrovector7builderNtB5_8BuiltMvf8to_bytes
FNDA:53,_RNvXs1_NtCsg0Tzsq7wD3a_11metrovector7builderNtB5_10MvfBuilderNtNtCs9sjCchOt1K7_4core7default7Default7default
FNDA:1,_RNvNtNtCsg0Tzsq7wD3a_11metrovector7builder5testss_14test_build_mvf
FNDA:1,_RNvNtNtCsg0Tzsq7wD3a_11metrovector7builder5testss_19test_built_mvf_save
FNDA:1,_RNvNtNtCsg0Tzsq7wD3a_11metrovector7builder5testss_21test_add_vector_space
FNDA:1,_RNvNtNtCsg0Tzsq7wD3a_11metrovector7builder5testss_21test_builder_creation
FNDA:1,_RNvNtNtCsg0Tzsq7wD3a_11metrovector7builder5testss_23test_built_mvf_to_bytes
FNDA:1,_RNvNtNtCsg0Tzsq7wD3a_11metrovector7builder5testss_24test_add_vectors_success
FNDA:1,_RNvNtNtCsg0Tzsq7wD3a_11metrovector7builder5testss_25test_get_vector_space_mut
FNDA:1,_RNvNtNtCsg0Tzsq7wD3a_11metrovector7builder5testss_27test_string_heap_management
FNDA:1,_RNvNtNtCsg0Tzsq7wD3a_11metrovector7builder5testss_29test_vector_space_builder_ref
FNDA:1,_RNvNtNtCsg0Tzsq7wD3a_11metrovector7builder5testss_34test_add_vectors_nonexistent_space
FNDA:1,_RNvNtNtCsg0Tzsq7wD3a_11metrovector7builder5testss_35test_add_vectors_dimension_mismatch
FNDA:1,_RNvNtNtCsg0Tzsq7wD3a_11metrovector7builder5testss_35test_built_mvf_with_complex_indexes
FNDA:1,_RNvNtNtCsg0Tzsq7wD3a_11metrovector7builder5testss_37test_add_vectors_different_data_types
FNDA:1,_RNvNtNtCsg0Tzsq7wD3a_11metrovector7builder5testss_37test_vector_space_builder_ref_methods
FNDA:1,_RNvNtNtCsg0Tzsq7wD3a_11metrovector7builder5testss_38test_add_vectors_unsupported_data_type
FNDA:1,_RNvNtNtCsg0Tzsq7wD3a_11metrovector7builder5testss_38test_vector_space_index_configurations
FNDA:1,_RNvNtNtCsg0Tzsq7wD3a_11metrovector7builder5testss_43test_add_vectors_empty_space_auto_dimension
FNDA:47,_RINvMNtCsg0Tzsq7wD3a_11metrovector7builderNtB3_10MvfBuilder11add_vectorsfEB5_
FNDA:36,_RINvMs0_NtCsg0Tzsq7wD3a_11metrovector7builderNtB6_8BuiltMvf4saveRNtNtCseJswNlh1fGO_3std4path7PathBufEB8_
FNDA:46,_RNCINvMNtCsg0Tzsq7wD3a_11metrovector7builderNtB5_10MvfBuilder11add_vectorsfE0B7_
FNDA:1,_RNCINvMNtCsg0Tzsq7wD3a_11metrovector7builderNtB5_10MvfBuilder11add_vectorsfEs_0B7_
FNDA:0,_RNCNvMNtCsg0Tzsq7wD3a_11metrovector7builderNtB4_10MvfBuilder5build0B6_
FNDA:0,_RNCNvMs0_NtCsg0Tzsq7wD3a_11metrovector7builderNtB7_8BuiltMvf8to_bytes0B9_
FNDA:0,_RNCNvMs0_NtCsg0Tzsq7wD3a_11metrovector7builderNtB7_8BuiltMvf8to_bytess0_0B9_
FNDA:0,_RNCNvMs0_NtCsg0Tzsq7wD3a_11metrovector7builderNtB7_8BuiltMvf8to_bytess_0B9_
FNDA:1280,_RNCNCNvNtNtCsg0Tzsq7wD3a_11metrovector7builder5testss_35test_built_mvf_with_complex_indexes00B9_
FNDA:10,_RNCNvNtNtCsg0Tzsq7wD3a_11metrovector7builder5testss_35test_built_mvf_with_complex_indexes0B7_
FNDA:0,_RINvMNtCsiiIhjJT0zrc_11metrovector7builderNtB3_10MvfBuilder11add_vectorsfECs6ar4RpNs37j_10data_types
FNDA:0,_RINvMs0_NtCsiiIhjJT0zrc_11metrovector7builderNtB6_8BuiltMvf4saveRNtNtCseJswNlh1fGO_3std4path7PathBufECs6ar4RpNs37j_10data_types
FNDA:0,_RNCINvMNtCsiiIhjJT0zrc_11metrovector7builderNtB5_10MvfBuilder11add_vectorsfE0Cs6ar4RpNs37j_10data_types
FNDA:0,_RNCINvMNtCsiiIhjJT0zrc_11metrovector7builderNtB5_10MvfBuilder11add_vectorsfEs_0Cs6ar4RpNs37j_10data_types
FNDA:0,_RNvMNtCsiiIhjJT0zrc_11metrovector7builderNtB2_10MvfBuilder16add_vector_space
FNDA:0,_RNvMNtCsiiIhjJT0zrc_11metrovector7builderNtB2_10MvfBuilder3new
FNDA:0,_RNvMNtCsiiIhjJT0zrc_11metrovector7builderNtB2_10MvfBuilder5build
FNDA:0,_RNvMNtCsiiIhjJT0zrc_11metrovector7builderNtB2_10MvfBuilder7version
FNDA:0,_RNvMs0_NtCsiiIhjJT0zrc_11metrovector7builderNtB5_8BuiltMvf8to_bytes
FNDA:0,_RNvMs_NtCsiiIhjJT0zrc_11metrovector7builderNtB4_21VectorSpaceBuilderRef11vector_type
FNDA:0,_RNvMs_NtCsiiIhjJT0zrc_11metrovector7builderNtB4_21VectorSpaceBuilderRef14with_ivf_index
FNDA:0,_RNvMs_NtCsiiIhjJT0zrc_11metrovector7builderNtB4_21VectorSpaceBuilderRef15distance_metric
FNDA:0,_RNvMs_NtCsiiIhjJT0zrc_11metrovector7builderNtB4_21VectorSpaceBuilderRef15with_flat_index
FNDA:0,_RNvMs_NtCsiiIhjJT0zrc_11metrovector7builderNtB4_21VectorSpaceBuilderRef15with_hnsw_index
FNDA:0,_RNvMs_NtCsiiIhjJT0zrc_11metrovector7builderNtB4_21VectorSpaceBuilderRef9data_type
FNDA:0,_RNvMs_NtCsiiIhjJT0zrc_11metrovector7builderNtB4_21VectorSpaceBuilderRef9dimension
FNDA:0,_RNvXs1_NtCsiiIhjJT0zrc_11metrovector7builderNtB5_10MvfBuilderNtNtCs9sjCchOt1K7_4core7default7Default7default
FNDA:0,_RNCNvMNtCsiiIhjJT0zrc_11metrovector7builderNtB4_10MvfBuilder5build0B6_
FNDA:0,_RNCNvMs0_NtCsiiIhjJT0zrc_11metrovector7builderNtB7_8BuiltMvf8to_bytes0B9_
FNDA:0,_RNCNvMs0_NtCsiiIhjJT0zrc_11metrovector7builderNtB7_8BuiltMvf8to_bytess0_0B9_
FNDA:0,_RNCNvMs0_NtCsiiIhjJT0zrc_11metrovector7builderNtB7_8BuiltMvf8to_bytess_0B9_
FNDA:0,_RINvMNtCsiiIhjJT0zrc_11metrovector7builderNtB3_10MvfBuilder11add_vectorspEB5_
FNDA:0,_RINvMNtCsiiIhjJT0zrc_11metrovector7builderNtB3_10MvfBuilder19add_metadata_columnpEB5_
FNDA:0,_RINvMs0_NtCsiiIhjJT0zrc_11metrovector7builderNtB6_8BuiltMvf4savepEB8_
FNDA:0,_RNCINvMNtCsiiIhjJT0zrc_11metrovector7builderNtB5_10MvfBuilder11add_vectorspE0B7_
FNDA:0,_RNCINvMNtCsiiIhjJT0zrc_11metrovector7builderNtB5_10MvfBuilder11add_vectorspEs_0B7_
FNDA:0,_RNvMNtCsiiIhjJT0zrc_11metrovector7builderNtB2_10MvfBuilder10add_string
FNDA:0,_RNvMNtCsiiIhjJT0zrc_11metrovector7builderNtB2_10MvfBuilder20get_vector_space_mut
FNDA:0,_RINvMNtCsiiIhjJT0zrc_11metrovector7builderNtB3_10MvfBuilder11add_vectorsfECs8c3YdBf7M3P_13large_dataset
FNDA:0,_RINvMs0_NtCsiiIhjJT0zrc_11metrovector7builderNtB6_8BuiltMvf4saveRNtNtCseJswNlh1fGO_3std4path7PathBufECs8c3YdBf7M3P_13large_dataset
FNDA:0,_RNCINvMNtCsiiIhjJT0zrc_11metrovector7builderNtB5_10MvfBuilder11add_vectorsfE0Cs8c3YdBf7M3P_13large_dataset
FNDA:0,_RNCINvMNtCsiiIhjJT0zrc_11metrovector7builderNtB5_10MvfBuilder11add_vectorsfEs_0Cs8c3YdBf7M3P_13large_dataset
FNDA:0,_RINvMNtCsiiIhjJT0zrc_11metrovector7builderNtB3_10MvfBuilder11add_vectorsfECsgp8hDUHE1qc_17similarity_search
FNDA:0,_RINvMs0_NtCsiiIhjJT0zrc_11metrovector7builderNtB6_8BuiltMvf4saveRNtNtCseJswNlh1fGO_3std4path7PathBufECsgp8hDUHE1qc_17similarity_search
FNDA:0,_RNCINvMNtCsiiIhjJT0zrc_11metrovector7builderNtB5_10MvfBuilder11add_vectorsfE0Csgp8hDUHE1qc_17similarity_search
FNDA:0,_RNCINvMNtCsiiIhjJT0zrc_11metrovector7builderNtB5_10MvfBuilder11add_vectorsfEs_0Csgp8hDUHE1qc_17similarity_search
FNDA:0,_RINvMNtCsiiIhjJT0zrc_11metrovector7builderNtB3_10MvfBuilder11add_vectorsfECsjbFG1jnGilz_6simple
FNDA:0,_RINvMs0_NtCsiiIhjJT0zrc_11metrovector7builderNtB6_8BuiltMvf4saveRNtNtCseJswNlh1fGO_3std4path7PathBufECsjbFG1jnGilz_6simple
FNDA:0,_RNCINvMNtCsiiIhjJT0zrc_11metrovector7builderNtB5_10MvfBuilder11add_vectorsfE0CsjbFG1jnGilz_6simple
FNDA:0,_RNCINvMNtCsiiIhjJT0zrc_11metrovector7builderNtB5_10MvfBuilder11add_vectorsfEs_0CsjbFG1jnGilz_6simple
FNF:43
FNH:31
DA:93,53
DA:94,53
DA:95,53
DA:98,1
DA:99,1
DA:100,1
DA:113,50
DA:114,50
DA:115,50
DA:116,50
DA:117,50
DA:118,50
DA:119,50
DA:120,50
DA:121,50
DA:122,50
DA:123,50
DA:124,50
DA:125,50
DA:126,50
DA:127,50
DA:128,50
DA:129,50
DA:130,50
DA:131,50
DA:132,50
DA:133,50
DA:134,50
DA:135,50
DA:151,47
DA:152,47
DA:153,47
DA:154,47
DA:155,47
DA:156,47
DA:157,47
DA:158,47
DA:159,47
DA:161,46
DA:162,0
DA:163,46
DA:164,46
DA:165,46
DA:166,46
DA:167,1
DA:168,45
DA:169,1
DA:170,1
DA:171,1
DA:172,1
DA:173,44
DA:175,45
DA:177,173
DA:178,1889
DA:179,1759
DA:180,1759
DA:181,1759
DA:185,2
DA:186,5
DA:187,4
DA:188,4
DA:189,4
DA:192,1
DA:195,44
DA:196,47
DA:211,0
DA:212,0
DA:213,0
DA:214,0
DA:215,0
DA:216,0
DA:217,0
DA:218,0
DA:219,0
DA:220,0
DA:221,0
DA:222,0
DA:223,0
DA:224,0
DA:225,0
DA:226,0
DA:227,0
DA:229,0
DA:230,0
DA:231,0
DA:232,0
DA:234,0
DA:235,0
DA:236,0
DA:241,39
DA:242,39
DA:243,39
DA:245,78
DA:246,39
DA:247,39
DA:248,39
DA:249,39
DA:250,39
DA:251,39
DA:252,39
DA:253,39
DA:254,39
DA:255,39
DA:257,39
DA:258,0
DA:259,0
DA:260,0
DA:261,0
DA:262,0
DA:263,0
DA:264,0
DA:265,0
DA:266,0
DA:267,0
DA:268,0
DA:269,0
DA:270,0
DA:271,0
DA:272,39
DA:275,39
DA:276,0
DA:277,0
DA:278,0
DA:279,0
DA:280,0
DA:281,0
DA:282,0
DA:283,0
DA:284,0
DA:285,0
DA:287,39
DA:288,0
DA:289,0
DA:290,0
DA:291,0
DA:292,0
DA:293,0
DA:294,0
DA:295,0
DA:296,0
DA:297,0
DA:299,39
DA:302,39
DA:303,39
DA:304,39
DA:305,39
DA:306,39
DA:307,39
DA:308,39
DA:311,2
DA:312,2
DA:313,2
DA:316,3
DA:317,3
DA:318,1
DA:319,2
DA:320,2
DA:321,2
DA:322,2
DA:323,2
DA:324,2
DA:325,2
DA:326,3
DA:339,0
DA:340,0
DA:341,0
DA:342,0
DA:345,0
DA:346,0
DA:347,0
DA:348,0
DA:351,0
DA:352,0
DA:353,0
DA:354,0
DA:357,0
DA:358,0
DA:359,0
DA:360,0
DA:363,0
DA:364,0
DA:365,0
DA:366,0
DA:369,0
DA:370,0
DA:371,0
DA:372,0
DA:373,0
DA:374,0
DA:375,0
DA:376,0
DA:377,0
DA:380,0
DA:381,0
DA:382,0
DA:383,0
DA:384,0
DA:385,0
DA:386,0
DA:387,0
DA:388,0
DA:389,0
DA:408,36
DA:409,36
DA:410,36
DA:411,36
DA:417,38
DA:418,38
DA:419,38
DA:420,38
DA:421,38
DA:423,76
DA:424,38
DA:425,38
DA:427,38
DA:428,38
DA:429,38
DA:430,38
DA:431,38
DA:433,38
DA:435,1
DA:436,1
DA:437,1
DA:438,1
DA:439,1
DA:440,1
DA:441,1
DA:442,1
DA:443,1
DA:444,1
DA:445,1
DA:446,1
DA:447,1
DA:450,0
DA:451,0
DA:452,0
DA:453,0
DA:454,0
DA:455,0
DA:456,0
DA:457,0
DA:458,0
DA:459,0
DA:460,0
DA:461,0
DA:462,0
DA:466,37
DA:467,37
DA:471,38
DA:472,38
DA:473,38
DA:474,38
DA:475,38
DA:476,38
DA:477,38
DA:478,38
DA:479,38
DA:480,38
DA:481,38
DA:482,38
DA:483,38
DA:484,38
DA:485,38
DA:486,38
DA:487,38
DA:488,38
DA:489,38
DA:492,38
DA:493,38
DA:494,38
DA:495,76
DA:496,38
DA:497,38
DA:499,38
DA:500,38
DA:501,38
DA:502,38
DA:503,0
DA:504,0
DA:505,0
DA:506,0
DA:507,0
DA:508,0
DA:509,0
DA:510,0
DA:511,0
DA:512,0
DA:513,0
DA:514,0
DA:515,0
DA:516,0
DA:517,0
DA:518,0
DA:519,0
DA:520,0
DA:522,38
DA:523,0
DA:525,38
DA:528,38
DA:529,38
DA:530,38
DA:531,38
DA:532,38
DA:533,38
DA:534,38
DA:535,38
DA:536,38
DA:537,38
DA:538,38
DA:539,38
DA:540,38
DA:541,38
DA:542,38
DA:543,38
DA:544,38
DA:545,38
DA:546,38
DA:547,38
DA:548,38
DA:549,38
DA:550,38
DA:551,38
DA:552,38
DA:553,38
DA:554,38
DA:555,38
DA:556,38
DA:557,38
DA:558,38
DA:562,53
DA:563,53
DA:564,53
DA:565,53
DA:566,53
DA:567,53
DA:568,53
DA:569,53
DA:570,53
DA:571,53
DA:582,1
DA:583,1
DA:584,1
DA:585,1
DA:586,1
DA:587,1
DA:590,1
DA:591,1
DA:592,1
DA:593,1
DA:594,1
DA:595,1
DA:596,1
DA:597,1
DA:598,1
DA:599,1
DA:600,1
DA:601,1
DA:602,1
DA:603,1
DA:606,1
DA:607,1
DA:608,1
DA:609,1
DA:610,1
DA:611,1
DA:612,1
DA:613,1
DA:614,1
DA:615,1
DA:616,1
DA:617,1
DA:618,1
DA:619,1
DA:620,1
DA:621,1
DA:622,1
DA:625,1
DA:626,1
DA:627,1
DA:628,1
DA:629,1
DA:630,1
DA:631,1
DA:632,1
DA:635,1
DA:636,1
DA:637,1
DA:638,1
DA:639,1
DA:640,1
DA:641,1
DA:642,1
DA:643,1
DA:644,1
DA:645,1
DA:646,1
DA:647,1
DA:648,1
DA:649,1
DA:650,1
DA:651,1
DA:652,1
DA:653,1
DA:654,1
DA:657,1
DA:658,1
DA:659,1
DA:660,1
DA:661,1
DA:662,1
DA:663,1
DA:664,1
DA:665,1
DA:666,1
DA:667,1
DA:668,1
DA:669,1
DA:670,1
DA:673,1
DA:674,1
DA:675,1
DA:676,1
DA:677,1
DA:678,1
DA:679,1
DA:680,1
DA:681,1
DA:682,1
DA:683,1
DA:684,1
DA:700,1
DA:701,1
DA:702,1
DA:703,1
DA:704,1
DA:705,1
DA:706,1
DA:707,1
DA:708,1
DA:709,1
DA:710,1
DA:711,1
DA:712,1
DA:713,1
DA:714,1
DA:715,1
DA:716,1
DA:719,1
DA:720,1
DA:721,1
DA:722,1
DA:723,1
DA:725,1
DA:726,1
DA:728,1
DA:729,1
DA:732,1
DA:733,1
DA:734,1
DA:735,1
DA:736,1
DA:737,1
DA:738,1
DA:739,1
DA:740,1
DA:743,1
DA:744,1
DA:745,1
DA:746,1
DA:747,1
DA:748,1
DA:749,1
DA:750,1
DA:751,1
DA:752,1
DA:753,1
DA:754,1
DA:755,1
DA:756,1
DA:757,1
DA:758,1
DA:759,1
DA:760,1
DA:761,1
DA:762,1
DA:763,1
DA:764,1
DA:805,1
DA:806,1
DA:807,1
DA:808,1
DA:809,1
DA:810,1
DA:811,1
DA:812,1
DA:813,1
DA:814,1
DA:815,1
DA:816,1
DA:817,1
DA:818,1
DA:819,1
DA:820,1
DA:823,1
DA:824,1
DA:827,1
DA:828,1
DA:831,1
DA:832,1
DA:833,1
DA:836,1
DA:837,1
DA:838,1
DA:839,1
DA:840,1
DA:841,1
DA:842,1
DA:843,1
DA:844,1
DA:845,1
DA:846,1
DA:847,1
DA:848,1
DA:849,1
DA:850,1
DA:853,1
DA:854,1
DA:855,1
DA:856,1
DA:857,1
DA:859,1
DA:860,1
DA:861,1
DA:863,1
DA:864,1
DA:866,0
DA:870,1
DA:871,1
DA:872,1
DA:873,1
DA:874,1
DA:875,1
DA:877,1
DA:878,1
DA:879,1
DA:880,1
DA:882,1
DA:883,1
DA:884,1
DA:886,0
DA:888,1
DA:891,1
DA:892,1
DA:893,1
DA:894,1
DA:895,1
DA:896,1
DA:897,1
DA:898,1
DA:899,1
DA:900,1
DA:901,1
DA:904,1
DA:905,1
DA:908,1
DA:909,1
DA:910,1
DA:911,1
DA:914,1
DA:915,1
DA:916,1
DA:917,1
DA:918,1
DA:919,1
DA:920,1
DA:921,1
DA:922,1
DA:923,1
DA:924,1
DA:925,1
DA:926,1
DA:927,1
DA:930,1
DA:931,1
DA:932,1
DA:978,1
DA:979,1
DA:980,1
DA:981,1
DA:982,1
DA:983,1
DA:984,1
DA:985,1
DA:986,1
DA:987,1
DA:988,1
DA:989,1
DA:990,1
DA:991,1
DA:992,1
DA:993,1
DA:996,1
DA:997,1
DA:998,1
DA:999,1
DA:1000,1
DA:1001,1
DA:1002,1
DA:1003,1
DA:1004,1
DA:1005,1
DA:1006,1
DA:1007,1
DA:1008,1
DA:1009,1
DA:1010,1
DA:1011,1
DA:1012,1
DA:1013,1
DA:1016,1
DA:1017,1
DA:1018,1
DA:1019,1
DA:1020,1
DA:1021,1
DA:1022,1
DA:1023,1
DA:1024,1
DA:1025,1
DA:1026,1
DA:1027,1
DA:1028,1
DA:1029,1
DA:1030,1
DA:1031,1
DA:1032,1
DA:1033,1
DA:1034,1
DA:1035,1280
DA:1036,1
DA:1037,1
DA:1038,1
DA:1039,1
DA:1040,1
DA:1041,1
DA:1042,1
DA:1043,1
DA:1044,1
BRF:0
BRH:0
LF:656
LH:520
end_of_record
SF:/home/solinaire/dev/personal/metrovector/src/errors.rs
FN:51,_RINvMNtCsg0Tzsq7wD3a_11metrovector6errorsNtB3_8MvfError11build_errorReEB5_
FN:47,_RINvMNtCsg0Tzsq7wD3a_11metrovector6errorsNtB3_8MvfError14corrupted_dataNtNtCs6bBekJvxEMJ_5alloc6string6StringEB5_
FN:47,_RINvMNtCsg0Tzsq7wD3a_11metrovector6errorsNtB3_8MvfError14corrupted_dataReEB5_
FN:43,_RINvMNtCsg0Tzsq7wD3a_11metrovector6errorsNtB3_8MvfError14invalid_formatNtNtCs6bBekJvxEMJ_5alloc6string6StringEB5_
FN:43,_RINvMNtCsg0Tzsq7wD3a_11metrovector6errorsNtB3_8MvfError14invalid_formatReEB5_
FN:51,_RINvMNtCsiiIhjJT0zrc_11metrovector6errorsNtB3_8MvfError11build_errorReEB5_
FN:47,_RINvMNtCsiiIhjJT0zrc_11metrovector6errorsNtB3_8MvfError14corrupted_dataNtNtCs6bBekJvxEMJ_5alloc6string6StringEB5_
FN:47,_RINvMNtCsiiIhjJT0zrc_11metrovector6errorsNtB3_8MvfError14corrupted_dataReEB5_
FN:43,_RINvMNtCsiiIhjJT0zrc_11metrovector6errorsNtB3_8MvfError14invalid_formatNtNtCs6bBekJvxEMJ_5alloc6string6StringEB5_
FN:43,_RINvMNtCsiiIhjJT0zrc_11metrovector6errorsNtB3_8MvfError14invalid_formatReEB5_
FNDA:7,_RINvMNtCsg0Tzsq7wD3a_11metrovector6errorsNtB3_8MvfError11build_errorReEB5_
FNDA:0,_RINvMNtCsg0Tzsq7wD3a_11metrovector6errorsNtB3_8MvfError14corrupted_dataNtNtCs6bBekJvxEMJ_5alloc6string6StringEB5_
FNDA:5,_RINvMNtCsg0Tzsq7wD3a_11metrovector6errorsNtB3_8MvfError14corrupted_dataReEB5_
FNDA:0,_RINvMNtCsg0Tzsq7wD3a_11metrovector6errorsNtB3_8MvfError14invalid_formatNtNtCs6bBekJvxEMJ_5alloc6string6StringEB5_
FNDA:3,_RINvMNtCsg0Tzsq7wD3a_11metrovector6errorsNtB3_8MvfError14invalid_formatReEB5_
FNDA:0,_RINvMNtCsiiIhjJT0zrc_11metrovector6errorsNtB3_8MvfError11build_errorReEB5_
FNDA:0,_RINvMNtCsiiIhjJT0zrc_11metrovector6errorsNtB3_8MvfError14corrupted_dataNtNtCs6bBekJvxEMJ_5alloc6string6StringEB5_
FNDA:0,_RINvMNtCsiiIhjJT0zrc_11metrovector6errorsNtB3_8MvfError14corrupted_dataReEB5_
FNDA:0,_RINvMNtCsiiIhjJT0zrc_11metrovector6errorsNtB3_8MvfError14invalid_formatNtNtCs6bBekJvxEMJ_5alloc6string6StringEB5_
FNDA:0,_RINvMNtCsiiIhjJT0zrc_11metrovector6errorsNtB3_8MvfError14invalid_formatReEB5_
FNF:3
FNH:3
DA:43,3
DA:44,3
DA:45,3
DA:47,5
DA:48,5
DA:49,5
DA:51,7
DA:52,7
DA:53,7
BRF:0
BRH:0
LF:9
LH:9
end_of_record
SF:/home/solinaire/dev/personal/metrovector/src/io.rs
FN:41,_RNvMNtCsg0Tzsq7wD3a_11metrovector2ioNtB2_9MvfWriter5write
FN:29,_RINvMNtCsg0Tzsq7wD3a_11metrovector2ioNtB3_9MvfWriter6createRNtNtCseJswNlh1fGO_3std4path7PathBufEB5_
FN:29,_RINvMNtCsiiIhjJT0zrc_11metrovector2ioNtB3_9MvfWriter6createRNtNtCseJswNlh1fGO_3std4path7PathBufECs6ar4RpNs37j_10data_types
FN:29,_RINvMNtCsiiIhjJT0zrc_11metrovector2ioNtB3_9MvfWriter6createpEB5_
FN:41,_RNvMNtCsiiIhjJT0zrc_11metrovector2ioNtB2_9MvfWriter5write
FN:29,_RINvMNtCsiiIhjJT0zrc_11metrovector2ioNtB3_9MvfWriter6createRNtNtCseJswNlh1fGO_3std4path7PathBufECs8c3YdBf7M3P_13large_dataset
FN:29,_RINvMNtCsiiIhjJT0zrc_11metrovector2ioNtB3_9MvfWriter6createRNtNtCseJswNlh1fGO_3std4path7PathBufECsgp8hDUHE1qc_17similarity_search
FN:29,_RINvMNtCsiiIhjJT0zrc_11metrovector2ioNtB3_9MvfWriter6createRNtNtCseJswNlh1fGO_3std4path7PathBufECsjbFG1jnGilz_6simple
FNDA:36,_RNvMNtCsg0Tzsq7wD3a_11metrovector2ioNtB2_9MvfWriter5write
FNDA:36,_RINvMNtCsg0Tzsq7wD3a_11metrovector2ioNtB3_9MvfWriter6createRNtNtCseJswNlh1fGO_3std4path7PathBufEB5_
FNDA:0,_RINvMNtCsiiIhjJT0zrc_11metrovector2ioNtB3_9MvfWriter6createRNtNtCseJswNlh1fGO_3std4path7PathBufECs6ar4RpNs37j_10data_types
FNDA:0,_RINvMNtCsiiIhjJT0zrc_11metrovector2ioNtB3_9MvfWriter6createpEB5_
FNDA:0,_RNvMNtCsiiIhjJT0zrc_11metrovector2ioNtB2_9MvfWriter5write
FNDA:0,_RINvMNtCsiiIhjJT0zrc_11metrovector2ioNtB3_9MvfWriter6createRNtNtCseJswNlh1fGO_3std4path7PathBufECs8c3YdBf7M3P_13large_dataset
FNDA:0,_RINvMNtCsiiIhjJT0zrc_11metrovector2ioNtB3_9MvfWriter6createRNtNtCseJswNlh1fGO_3std4path7PathBufECsgp8hDUHE1qc_17similarity_search
FNDA:0,_RINvMNtCsiiIhjJT0zrc_11metrovector2ioNtB3_9MvfWriter6createRNtNtCseJswNlh1fGO_3std4path7PathBufECsjbFG1jnGilz_6simple
FNF:2
FNH:2
DA:29,36
DA:30,36
DA:31,36
DA:32,36
DA:41,36
DA:42,36
DA:43,36
DA:44,36
DA:45,36
DA:46,36
BRF:0
BRH:0
LF:10
LH:10
end_of_record
SF:/home/solinaire/dev/personal/metrovector/src/reader.rs
FN:172,_RNvMNtCsg0Tzsq7wD3a_11metrovector6readerNtB2_9MvfReader22validate_with_checksum
FN:305,_RNvNtNtCsg0Tzsq7wD3a_11metrovector6reader5testss_20test_open_valid_file
FN:422,_RNvNtNtCsg0Tzsq7wD3a_11metrovector6reader5testss_20test_validate_reader
FN:406,_RNvNtNtCsg0Tzsq7wD3a_11metrovector6reader5testss_21test_get_vector_space
FN:435,_RNvNtNtCsg0Tzsq7wD3a_11metrovector6reader5testss_21test_reader_send_sync
FN:390,_RNvNtNtCsg0Tzsq7wD3a_11metrovector6reader5testss_22test_reader_properties
FN:628,_RNvNtNtCsg0Tzsq7wD3a_11metrovector6reader5testss_23test_reader_error_paths
FN:348,_RNvNtNtCsg0Tzsq7wD3a_11metrovector6reader5testss_24test_open_file_too_small
FN:339,_RNvNtNtCsg0Tzsq7wD3a_11metrovector6reader5testss_26test_open_nonexistent_file
FN:321,_RNvNtNtCsg0Tzsq7wD3a_11metrovector6reader5testss_28test_open_minimum_valid_size
FN:501,_RNvNtNtCsg0Tzsq7wD3a_11metrovector6reader5testss_28test_vector_space_properties
FN:357,_RNvNtNtCsg0Tzsq7wD3a_11metrovector6reader5testss_29test_open_invalid_footer_size
FN:611,_RNvNtNtCsg0Tzsq7wD3a_11metrovector6reader5testss_32test_block_validation_edge_cases
FN:374,_RNvNtNtCsg0Tzsq7wD3a_11metrovector6reader5testss_33test_open_invalid_file_identifier
FN:45,_RINvMNtCsg0Tzsq7wD3a_11metrovector6readerNtB3_9MvfReader4openRNtNtCseJswNlh1fGO_3std4path7PathBufEB5_
FN:65,_RNCINvMNtCsg0Tzsq7wD3a_11metrovector6readerNtB5_9MvfReader4openRNtNtCseJswNlh1fGO_3std4path7PathBufE0B7_
FN:138,_RNCNCNvMNtCsg0Tzsq7wD3a_11metrovector6readerNtB6_9MvfReader21metadata_column_names00B8_
FN:139,_RNCNCNvMNtCsg0Tzsq7wD3a_11metrovector6readerNtB6_9MvfReader21metadata_column_names0s_0B8_
FN:110,_RNCNvMNtCsg0Tzsq7wD3a_11metrovector6readerNtB4_9MvfReader12vector_space0B6_
FN:96,_RNCNvMNtCsg0Tzsq7wD3a_11metrovector6readerNtB4_9MvfReader18vector_space_names0B6_
FN:135,_RNCNvMNtCsg0Tzsq7wD3a_11metrovector6readerNtB4_9MvfReader21metadata_column_names0B6_
FN:246,_RNCNvMNtCsg0Tzsq7wD3a_11metrovector6readerNtB4_9MvfReader22validate_footer_bounds0B6_
FN:436,_RINvNvNtNtCsg0Tzsq7wD3a_11metrovector6reader5testss_21test_reader_send_sync11assert_sendNtB6_9MvfReaderEB8_
FN:437,_RINvNvNtNtCsg0Tzsq7wD3a_11metrovector6reader5testss_21test_reader_send_sync11assert_syncNtB6_9MvfReaderEB8_
FN:127,_RNvMNtCsg0Tzsq7wD3a_11metrovector6readerNtB2_9MvfReader12has_metadata
FN:104,_RNvMNtCsg0Tzsq7wD3a_11metrovector6readerNtB2_9MvfReader12vector_space
FN:87,_RNvMNtCsg0Tzsq7wD3a_11metrovector6readerNtB2_9MvfReader17num_vector_spaces
FN:92,_RNvMNtCsg0Tzsq7wD3a_11metrovector6readerNtB2_9MvfReader18vector_space_names
FN:132,_RNvMNtCsg0Tzsq7wD3a_11metrovector6readerNtB2_9MvfReader21metadata_column_names
FN:225,_RNvMNtCsg0Tzsq7wD3a_11metrovector6readerNtB2_9MvfReader22validate_footer_bounds
FN:259,_RNvMNtCsg0Tzsq7wD3a_11metrovector6readerNtB2_9MvfReader23validate_file_structure
FN:82,_RNvMNtCsg0Tzsq7wD3a_11metrovector6readerNtB2_9MvfReader7version
FN:149,_RNvMNtCsg0Tzsq7wD3a_11metrovector6readerNtB2_9MvfReader8validate
FN:122,_RNvMNtCsg0Tzsq7wD3a_11metrovector6readerNtB2_9MvfReader9file_size
FN:45,_RINvMNtCsiiIhjJT0zrc_11metrovector6readerNtB3_9MvfReader4openRNtNtCseJswNlh1fGO_3std4path7PathBufECs6ar4RpNs37j_10data_types
FN:65,_RNCINvMNtCsiiIhjJT0zrc_11metrovector6readerNtB5_9MvfReader4openRNtNtCseJswNlh1fGO_3std4path7PathBufE0Cs6ar4RpNs37j_10data_types
FN:45,_RINvMNtCsiiIhjJT0zrc_11metrovector6readerNtB3_9MvfReader4openpEB5_
FN:65,_RNCINvMNtCsiiIhjJT0zrc_11metrovector6readerNtB5_9MvfReader4openpE0B7_
FN:127,_RNvMNtCsiiIhjJT0zrc_11metrovector6readerNtB2_9MvfReader12has_metadata
FN:104,_RNvMNtCsiiIhjJT0zrc_11metrovector6readerNtB2_9MvfReader12vector_space
FN:87,_RNvMNtCsiiIhjJT0zrc_11metrovector6readerNtB2_9MvfReader17num_vector_spaces
FN:92,_RNvMNtCsiiIhjJT0zrc_11metrovector6readerNtB2_9MvfReader18vector_space_names
FN:132,_RNvMNtCsiiIhjJT0zrc_11metrovector6readerNtB2_9MvfReader21metadata_column_names
FN:225,_RNvMNtCsiiIhjJT0zrc_11metrovector6readerNtB2_9MvfReader22validate_footer_bounds
FN:172,_RNvMNtCsiiIhjJT0zrc_11metrovector6readerNtB2_9MvfReader22validate_with_checksum
FN:259,_RNvMNtCsiiIhjJT0zrc_11metrovector6readerNtB2_9MvfReader23validate_file_structure
FN:82,_RNvMNtCsiiIhjJT0zrc_11metrovector6readerNtB2_9MvfReader7version
FN:149,_RNvMNtCsiiIhjJT0zrc_11metrovector6readerNtB2_9MvfReader8validate
FN:122,_RNvMNtCsiiIhjJT0zrc_11metrovector6readerNtB2_9MvfReader9file_size
FN:138,_RNCNCNvMNtCsiiIhjJT0zrc_11metrovector6readerNtB6_9MvfReader21metadata_column_names00B8_
FN:139,_RNCNCNvMNtCsiiIhjJT0zrc_11metrovector6readerNtB6_9MvfReader21metadata_column_names0s_0B8_
FN:110,_RNCNvMNtCsiiIhjJT0zrc_11metrovector6readerNtB4_9MvfReader12vector_space0B6_
FN:96,_RNCNvMNtCsiiIhjJT0zrc_11metrovector6readerNtB4_9MvfReader18vector_space_names0B6_
FN:135,_RNCNvMNtCsiiIhjJT0zrc_11metrovector6readerNtB4_9MvfReader21metadata_column_names0B6_
FN:246,_RNCNvMNtCsiiIhjJT0zrc_11metrovector6readerNtB4_9MvfReader22validate_footer_bounds0B6_
FN:45,_RINvMNtCsiiIhjJT0zrc_11metrovector6readerNtB3_9MvfReader4openRNtNtCseJswNlh1fGO_3std4path7PathBufECs8c3YdBf7M3P_13large_dataset
FN:65,_RNCINvMNtCsiiIhjJT0zrc_11metrovector6readerNtB5_9MvfReader4openRNtNtCseJswNlh1fGO_3std4path7PathBufE0Cs8c3YdBf7M3P_13large_dataset
FN:45,_RINvMNtCsiiIhjJT0zrc_11metrovector6readerNtB3_9MvfReader4openRNtNtCseJswNlh1fGO_3std4path7PathBufECsgp8hDUHE1qc_17similarity_search
FN:65,_RNCINvMNtCsiiIhjJT0zrc_11metrovector6readerNtB5_9MvfReader4openRNtNtCseJswNlh1fGO_3std4path7PathBufE0Csgp8hDUHE1qc_17similarity_search
FN:45,_RINvMNtCsiiIhjJT0zrc_11metrovector6readerNtB3_9MvfReader4openRNtNtCseJswNlh1fGO_3std4path7PathBufECsjbFG1jnGilz_6simple
FN:65,_RNCINvMNtCsiiIhjJT0zrc_11metrovector6readerNtB5_9MvfReader4openRNtNtCseJswNlh1fGO_3std4path7PathBufE0CsjbFG1jnGilz_6simple
FNDA:0,_RNvMNtCsg0Tzsq7wD3a_11metrovector6readerNtB2_9MvfReader22validate_with_checksum
FNDA:1,_RNvNtNtCsg0Tzsq7wD3a_11metrovector6reader5testss_20test_open_valid_file
FNDA:1,_RNvNtNtCsg0Tzsq7wD3a_11metrovector6reader5testss_20test_validate_reader
FNDA:1,_RNvNtNtCsg0Tzsq7wD3a_11metrovector6reader5testss_21test_get_vector_space
FNDA:1,_RNvNtNtCsg0Tzsq7wD3a_11metrovector6reader5testss_21test_reader_send_sync
FNDA:1,_RNvNtNtCsg0Tzsq7wD3a_11metrovector6reader5testss_22test_reader_properties
FNDA:1,_RNvNtNtCsg0Tzsq7wD3a_11metrovector6reader5testss_23test_reader_error_paths
FNDA:1,_RNvNtNtCsg0Tzsq7wD3a_11metrovector6reader5testss_24test_open_file_too_small
FNDA:1,_RNvNtNtCsg0Tzsq7wD3a_11metrovector6reader5testss_26test_open_nonexistent_file
FNDA:1,_RNvNtNtCsg0Tzsq7wD3a_11metrovector6reader5testss_28test_open_minimum_valid_size
FNDA:1,_RNvNtNtCsg0Tzsq7wD3a_11metrovector6reader5testss_28test_vector_space_properties
FNDA:1,_RNvNtNtCsg0Tzsq7wD3a_11metrovector6reader5testss_29test_open_invalid_footer_size
FNDA:1,_RNvNtNtCsg0Tzsq7wD3a_11metrovector6reader5testss_32test_block_validation_edge_cases
FNDA:1,_RNvNtNtCsg0Tzsq7wD3a_11metrovector6reader5testss_33test_open_invalid_file_identifier
FNDA:40,_RINvMNtCsg0Tzsq7wD3a_11metrovector6readerNtB3_9MvfReader4openRNtNtCseJswNlh1fGO_3std4path7PathBufEB5_
FNDA:0,_RNCINvMNtCsg0Tzsq7wD3a_11metrovector6readerNtB5_9MvfReader4openRNtNtCseJswNlh1fGO_3std4path7PathBufE0B7_
FNDA:0,_RNCNCNvMNtCsg0Tzsq7wD3a_11metrovector6readerNtB6_9MvfReader21metadata_column_names00B8_
FNDA:0,_RNCNCNvMNtCsg0Tzsq7wD3a_11metrovector6readerNtB6_9MvfReader21metadata_column_names0s_0B8_
FNDA:32,_RNCNvMNtCsg0Tzsq7wD3a_11metrovector6readerNtB4_9MvfReader12vector_space0B6_
FNDA:1,_RNCNvMNtCsg0Tzsq7wD3a_11metrovector6readerNtB4_9MvfReader18vector_space_names0B6_
FNDA:0,_RNCNvMNtCsg0Tzsq7wD3a_11metrovector6readerNtB4_9MvfReader21metadata_column_names0B6_
FNDA:0,_RNCNvMNtCsg0Tzsq7wD3a_11metrovector6readerNtB4_9MvfReader22validate_footer_bounds0B6_
FNDA:1,_RINvNvNtNtCsg0Tzsq7wD3a_11metrovector6reader5testss_21test_reader_send_sync11assert_sendNtB6_9MvfReaderEB8_
FNDA:1,_RINvNvNtNtCsg0Tzsq7wD3a_11metrovector6reader5testss_21test_reader_send_sync11assert_syncNtB6_9MvfReaderEB8_
FNDA:1,_RNvMNtCsg0Tzsq7wD3a_11metrovector6readerNtB2_9MvfReader12has_metadata
FNDA:32,_RNvMNtCsg0Tzsq7wD3a_11metrovector6readerNtB2_9MvfReader12vector_space
FNDA:2,_RNvMNtCsg0Tzsq7wD3a_11metrovector6readerNtB2_9MvfReader17num_vector_spaces
FNDA:1,_RNvMNtCsg0Tzsq7wD3a_11metrovector6readerNtB2_9MvfReader18vector_space_names
FNDA:1,_RNvMNtCsg0Tzsq7wD3a_11metrovector6readerNtB2_9MvfReader21metadata_column_names
FNDA:35,_RNvMNtCsg0Tzsq7wD3a_11metrovector6readerNtB2_9MvfReader22validate_footer_bounds
FNDA:38,_RNvMNtCsg0Tzsq7wD3a_11metrovector6readerNtB2_9MvfReader23validate_file_structure
FNDA:1,_RNvMNtCsg0Tzsq7wD3a_11metrovector6readerNtB2_9MvfReader7version
FNDA:2,_RNvMNtCsg0Tzsq7wD3a_11metrovector6readerNtB2_9MvfReader8validate
FNDA:1,_RNvMNtCsg0Tzsq7wD3a_11metrovector6readerNtB2_9MvfReader9file_size
FNDA:0,_RINvMNtCsiiIhjJT0zrc_11metrovector6readerNtB3_9MvfReader4openRNtNtCseJswNlh1fGO_3std4path7PathBufECs6ar4RpNs37j_10data_types
FNDA:0,_RNCINvMNtCsiiIhjJT0zrc_11metrovector6readerNtB5_9MvfReader4openRNtNtCseJswNlh1fGO_3std4path7PathBufE0Cs6ar4RpNs37j_10data_types
FNDA:0,_RINvMNtCsiiIhjJT0zrc_11metrovector6readerNtB3_9MvfReader4openpEB5_
FNDA:0,_RNCINvMNtCsiiIhjJT0zrc_11metrovector6readerNtB5_9MvfReader4openpE0B7_
FNDA:0,_RNvMNtCsiiIhjJT0zrc_11metrovector6readerNtB2_9MvfReader12has_metadata
FNDA:0,_RNvMNtCsiiIhjJT0zrc_11metrovector6readerNtB2_9MvfReader12vector_space
FNDA:0,_RNvMNtCsiiIhjJT0zrc_11metrovector6readerNtB2_9MvfReader17num_vector_spaces
FNDA:0,_RNvMNtCsiiIhjJT0zrc_11metrovector6readerNtB2_9MvfReader18vector_space_names
FNDA:0,_RNvMNtCsiiIhjJT0zrc_11metrovector6readerNtB2_9MvfReader21metadata_column_names
FNDA:0,_RNvMNtCsiiIhjJT0zrc_11metrovector6readerNtB2_9MvfReader22validate_footer_bounds
FNDA:0,_RNvMNtCsiiIhjJT0zrc_11metrovector6readerNtB2_9MvfReader22validate_with_checksum
FNDA:0,_RNvMNtCsiiIhjJT0zrc_11metrovector6readerNtB2_9MvfReader23validate_file_structure
FNDA:0,_RNvMNtCsiiIhjJT0zrc_11metrovector6readerNtB2_9MvfReader7version
FNDA:0,_RNvMNtCsiiIhjJT0zrc_11metrovector6readerNtB2_9MvfReader8validate
FNDA:0,_RNvMNtCsiiIhjJT0zrc_11metrovector6readerNtB2_9MvfReader9file_size
FNDA:0,_RNCNCNvMNtCsiiIhjJT0zrc_11metrovector6readerNtB6_9MvfReader21metadata_column_names00B8_
FNDA:0,_RNCNCNvMNtCsiiIhjJT0zrc_11metrovector6readerNtB6_9MvfReader21metadata_column_names0s_0B8_
FNDA:0,_RNCNvMNtCsiiIhjJT0zrc_11metrovector6readerNtB4_9MvfReader12vector_space0B6_
FNDA:0,_RNCNvMNtCsiiIhjJT0zrc_11metrovector6readerNtB4_9MvfReader18vector_space_names0B6_
FNDA:0,_RNCNvMNtCsiiIhjJT0zrc_11metrovector6readerNtB4_9MvfReader21metadata_column_names0B6_
FNDA:0,_RNCNvMNtCsiiIhjJT0zrc_11metrovector6readerNtB4_9MvfReader22validate_footer_bounds0B6_
FNDA:0,_RINvMNtCsiiIhjJT0zrc_11metrovector6readerNtB3_9MvfReader4openRNtNtCseJswNlh1fGO_3std4path7PathBufECs8c3YdBf7M3P_13large_dataset
FNDA:0,_RNCINvMNtCsiiIhjJT0zrc_11metrovector6readerNtB5_9MvfReader4openRNtNtCseJswNlh1fGO_3std4path7PathBufE0Cs8c3YdBf7M3P_13large_dataset
FNDA:0,_RINvMNtCsiiIhjJT0zrc_11metrovector6readerNtB3_9MvfReader4openRNtNtCseJswNlh1fGO_3std4path7PathBufECsgp8hDUHE1qc_17similarity_search
FNDA:0,_RNCINvMNtCsiiIhjJT0zrc_11metrovector6readerNtB5_9MvfReader4openRNtNtCseJswNlh1fGO_3std4path7PathBufE0Csgp8hDUHE1qc_17similarity_search
FNDA:0,_RINvMNtCsiiIhjJT0zrc_11metrovector6readerNtB3_9MvfReader4openRNtNtCseJswNlh1fGO_3std4path7PathBufECsjbFG1jnGilz_6simple
FNDA:0,_RNCINvMNtCsiiIhjJT0zrc_11metrovector6readerNtB5_9MvfReader4openRNtNtCseJswNlh1fGO_3std4path7PathBufE0CsjbFG1jnGilz_6simple
FNF:34
FNH:28
DA:45,40
DA:46,40
DA:47,39
DA:49,38
DA:51,35
DA:53,35
DA:54,35
DA:55,35
DA:56,35
DA:57,35
DA:58,35
DA:59,35
DA:60,35
DA:61,35
DA:62,35
DA:63,35
DA:64,35
DA:65,35
DA:75,35
DA:76,35
DA:77,35
DA:78,35
DA:79,40
DA:82,1
DA:83,1
DA:84,1
DA:87,2
DA:88,2
DA:89,2
DA:92,1
DA:93,1
DA:94,1
DA:95,1
DA:96,1
DA:97,1
DA:98,1
DA:104,32
DA:105,32
DA:107,32
DA:108,32
DA:109,32
DA:110,32
DA:111,32
DA:113,31
DA:114,31
DA:115,31
DA:116,31
DA:117,31
DA:118,31
DA:119,32
DA:122,1
DA:123,1
DA:124,1
DA:127,1
DA:128,1
DA:129,1
DA:132,1
DA:133,1
DA:134,1
DA:135,1
DA:136,0
DA:137,0
DA:138,0
DA:139,0
DA:140,0
DA:141,1
DA:142,1
DA:143,1
DA:149,2
DA:150,2
DA:151,2
DA:152,2
DA:153,0
DA:154,0
DA:155,0
DA:156,0
DA:157,0
DA:158,0
DA:159,2
DA:161,2
DA:162,2
DA:172,0
DA:173,0
DA:174,0
DA:175,0
DA:176,0
DA:177,0
DA:178,0
DA:179,0
DA:180,0
DA:181,0
DA:182,0
DA:183,0
DA:184,0
DA:185,0
DA:186,0
DA:187,0
DA:188,0
DA:189,0
DA:190,0
DA:191,0
DA:192,0
DA:193,0
DA:194,0
DA:195,0
DA:196,0
DA:197,0
DA:198,0
DA:199,0
DA:200,0
DA:201,0
DA:202,0
DA:203,0
DA:204,0
DA:205,0
DA:206,0
DA:207,0
DA:208,0
DA:209,0
DA:210,0
DA:211,0
DA:212,0
DA:213,0
DA:214,0
DA:215,0
DA:216,0
DA:217,0
DA:220,0
DA:221,0
DA:225,35
DA:226,35
DA:227,35
DA:228,35
DA:229,35
DA:230,35
DA:231,35
DA:232,35
DA:233,35
DA:234,35
DA:235,35
DA:236,35
DA:237,0
DA:238,35
DA:239,35
DA:240,35
DA:241,35
DA:242,35
DA:243,35
DA:245,35
DA:246,35
DA:248,35
DA:249,0
DA:250,0
DA:251,0
DA:252,0
DA:253,35
DA:254,35
DA:255,35
DA:256,35
DA:259,38
DA:260,38
DA:261,38
DA:262,1
DA:263,37
DA:264,37
DA:265,37
DA:266,2
DA:267,2
DA:268,2
DA:269,35
DA:270,35
DA:271,35
DA:272,0
DA:273,0
DA:274,0
DA:275,35
DA:276,35
DA:277,35
DA:278,38
DA:305,1
DA:306,1
DA:307,1
DA:308,1
DA:309,1
DA:310,1
DA:311,1
DA:312,1
DA:313,1
DA:315,1
DA:316,1
DA:317,1
DA:318,1
DA:321,1
DA:322,1
DA:323,1
DA:324,1
DA:325,1
DA:326,1
DA:327,1
DA:328,1
DA:329,1
DA:330,1
DA:331,1
DA:332,1
DA:333,1
DA:334,1
DA:335,1
DA:336,1
DA:339,1
DA:340,1
DA:341,1
DA:342,1
DA:343,1
DA:344,1
DA:345,1
DA:348,1
DA:349,1
DA:350,1
DA:351,1
DA:352,1
DA:353,1
DA:354,1
DA:357,1
DA:358,1
DA:359,1
DA:360,1
DA:361,1
DA:362,1
DA:363,1
DA:364,1
DA:365,1
DA:366,1
DA:367,1
DA:368,1
DA:369,1
DA:370,1
DA:371,1
DA:374,1
DA:375,1
DA:376,1
DA:377,1
DA:378,1
DA:379,1
DA:380,1
DA:381,1
DA:382,1
DA:383,1
DA:384,1
DA:385,1
DA:386,1
DA:387,1
DA:390,1
DA:391,1
DA:392,1
DA:393,1
DA:394,1
DA:395,1
DA:396,1
DA:397,1
DA:398,1
DA:399,1
DA:400,1
DA:401,1
DA:402,1
DA:403,1
DA:406,1
DA:407,1
DA:408,1
DA:409,1
DA:410,1
DA:411,1
DA:412,1
DA:413,1
DA:414,1
DA:415,1
DA:417,1
DA:418,1
DA:419,1
DA:422,1
DA:423,1
DA:424,1
DA:425,1
DA:426,1
DA:427,1
DA:428,1
DA:429,1
DA:430,1
DA:431,1
DA:432,1
DA:435,1
DA:436,1
DA:437,1
DA:439,1
DA:440,1
DA:441,1
DA:501,1
DA:502,1
DA:503,1
DA:504,1
DA:505,1
DA:506,1
DA:507,1
DA:508,1
DA:509,1
DA:510,1
DA:511,1
DA:512,1
DA:513,1
DA:514,1
DA:515,1
DA:516,1
DA:611,1
DA:612,1
DA:613,1
DA:614,1
DA:615,1
DA:616,1
DA:617,1
DA:618,1
DA:619,1
DA:620,1
DA:621,1
DA:625,1
DA:628,1
DA:629,1
DA:630,1
DA:631,1
DA:632,1
DA:633,1
DA:634,1
DA:635,1
DA:636,1
DA:637,1
BRF:0
BRH:0
LF:341
LH:268
end_of_record
SF:/home/solinaire/dev/personal/metrovector/src/vector/access.rs
FN:77,_RNvNtNtNtCsg0Tzsq7wD3a_11metrovector6vector6access5testss_25test_access_pattern_empty
FN:92,_RNvNtNtNtCsg0Tzsq7wD3a_11metrovector6vector6access5testss_30test_access_pattern_duplicates
FN:112,_RNvNtNtNtCsg0Tzsq7wD3a_11metrovector6vector6access5testss_30test_access_pattern_large_gaps
FN:133,_RNvNtNtNtCsg0Tzsq7wD3a_11metrovector6vector6access5testss_30test_access_pattern_same_block
FN:123,_RNvNtNtNtCsg0Tzsq7wD3a_11metrovector6vector6access5testss_33test_access_pattern_reverse_order
FN:84,_RNvNtNtNtCsg0Tzsq7wD3a_11metrovector6vector6access5testss_34test_access_pattern_single_element
FN:102,_RNvNtNtNtCsg0Tzsq7wD3a_11metrovector6vector6access5testss_35test_access_pattern_multiple_blocks
FN:143,_RNvNtNtNtCsg0Tzsq7wD3a_11metrovector6vector6access5testss_36test_access_pattern_block_boundaries
FN:67,_RNvMNtNtCsg0Tzsq7wD3a_11metrovector6vector6accessNtB2_13AccessPattern12block_ranges
FN:29,_RNvMNtNtCsg0Tzsq7wD3a_11metrovector6vector6accessNtB2_13AccessPattern3new
FN:59,_RNvMNtNtCsg0Tzsq7wD3a_11metrovector6vector6accessNtB2_13AccessPattern7indices
FN:67,_RNvMNtNtCsiiIhjJT0zrc_11metrovector6vector6accessNtB2_13AccessPattern12block_ranges
FN:29,_RNvMNtNtCsiiIhjJT0zrc_11metrovector6vector6accessNtB2_13AccessPattern3new
FN:59,_RNvMNtNtCsiiIhjJT0zrc_11metrovector6vector6accessNtB2_13AccessPattern7indices
FNDA:1,_RNvNtNtNtCsg0Tzsq7wD3a_11metrovector6vector6access5testss_25test_access_pattern_empty
FNDA:1,_RNvNtNtNtCsg0Tzsq7wD3a_11metrovector6vector6access5testss_30test_access_pattern_duplicates
FNDA:1,_RNvNtNtNtCsg0Tzsq7wD3a_11metrovector6vector6access5testss_30test_access_pattern_large_gaps
FNDA:1,_RNvNtNtNtCsg0Tzsq7wD3a_11metrovector6vector6access5testss_30test_access_pattern_same_block
FNDA:1,_RNvNtNtNtCsg0Tzsq7wD3a_11metrovector6vector6access5testss_33test_access_pattern_reverse_order
FNDA:1,_RNvNtNtNtCsg0Tzsq7wD3a_11metrovector6vector6access5testss_34test_access_pattern_single_element
FNDA:1,_RNvNtNtNtCsg0Tzsq7wD3a_11metrovector6vector6access5testss_35test_access_pattern_multiple_blocks
FNDA:1,_RNvNtNtNtCsg0Tzsq7wD3a_11metrovector6vector6access5testss_36test_access_pattern_block_boundaries
FNDA:11,_RNvMNtNtCsg0Tzsq7wD3a_11metrovector6vector6accessNtB2_13AccessPattern12block_ranges
FNDA:14,_RNvMNtNtCsg0Tzsq7wD3a_11metrovector6vector6accessNtB2_13AccessPattern3new
FNDA:13,_RNvMNtNtCsg0Tzsq7wD3a_11metrovector6vector6accessNtB2_13AccessPattern7indices
FNDA:0,_RNvMNtNtCsiiIhjJT0zrc_11metrovector6vector6accessNtB2_13AccessPattern12block_ranges
FNDA:0,_RNvMNtNtCsiiIhjJT0zrc_11metrovector6vector6accessNtB2_13AccessPattern3new
FNDA:0,_RNvMNtNtCsiiIhjJT0zrc_11metrovector6vector6accessNtB2_13AccessPattern7indices
FNF:11
FNH:11
DA:29,14
DA:30,14
DA:31,14
DA:36,14
DA:37,14
DA:38,11
DA:39,11
DA:41,27
DA:42,27
DA:43,27
DA:44,7
DA:45,7
DA:46,7
DA:47,20
DA:49,11
DA:50,3
DA:52,14
DA:53,14
DA:54,14
DA:55,14
DA:56,14
DA:59,13
DA:60,13
DA:61,13
DA:67,11
DA:68,11
DA:69,11
DA:77,1
DA:78,1
DA:79,1
DA:80,1
DA:81,1
DA:84,1
DA:85,1
DA:86,1
DA:87,1
DA:88,1
DA:89,1
DA:92,1
DA:93,1
DA:94,1
DA:95,1
DA:96,1
DA:97,1
DA:98,1
DA:99,1
DA:102,1
DA:103,1
DA:104,1
DA:105,1
DA:106,1
DA:107,1
DA:108,1
DA:109,1
DA:112,1
DA:113,1
DA:114,1
DA:115,1
DA:116,1
DA:117,1
DA:119,1
DA:120,1
DA:123,1
DA:124,1
DA:125,1
DA:126,1
DA:127,1
DA:128,1
DA:129,1
DA:130,1
DA:133,1
DA:134,1
DA:135,1
DA:136,1
DA:137,1
DA:138,1
DA:139,1
DA:140,1
DA:143,1
DA:144,1
DA:145,1
DA:146,1
DA:147,1
DA:148,1
DA:149,1
DA:150,1
BRF:0
BRH:0
LF:86
LH:86
end_of_record
SF:/home/solinaire/dev/personal/metrovector/src/vector/dimension.rs
FN:49,_RNvMNtNtCsg0Tzsq7wD3a_11metrovector6vector9dimensionNtB2_14DimensionSlice3new
FN:136,_RNvMs0_NtNtCsg0Tzsq7wD3a_11metrovector6vector9dimensionNtB5_22DimensionValueIterator3new
FN:123,_RNvMs_NtNtCsg0Tzsq7wD3a_11metrovector6vector9dimensionNtB4_14DimensionSlice11iter_values
FN:82,_RNvMs_NtNtCsg0Tzsq7wD3a_11metrovector6vector9dimensionNtB4_14DimensionSlice9get_value
FN:147,_RNvXs1_NtNtCsg0Tzsq7wD3a_11metrovector6vector9dimensionNtB5_22DimensionValueIteratorNtNtNtNtCs9sjCchOt1K7_4core4iter6traits8iterator8Iterator4next
FN:49,_RNvMNtNtCsiiIhjJT0zrc_11metrovector6vector9dimensionNtB2_14DimensionSlice3new
FN:136,_RNvMs0_NtNtCsiiIhjJT0zrc_11metrovector6vector9dimensionNtB5_22DimensionValueIterator3new
FN:123,_RNvMs_NtNtCsiiIhjJT0zrc_11metrovector6vector9dimensionNtB4_14DimensionSlice11iter_values
FN:82,_RNvMs_NtNtCsiiIhjJT0zrc_11metrovector6vector9dimensionNtB4_14DimensionSlice9get_value
FN:147,_RNvXs1_NtNtCsiiIhjJT0zrc_11metrovector6vector9dimensionNtB5_22DimensionValueIteratorNtNtNtNtCs9sjCchOt1K7_4core4iter6traits8iterator8Iterator4next
FNDA:4,_RNvMNtNtCsg0Tzsq7wD3a_11metrovector6vector9dimensionNtB2_14DimensionSlice3new
FNDA:2,_RNvMs0_NtNtCsg0Tzsq7wD3a_11metrovector6vector9dimensionNtB5_22DimensionValueIterator3new
FNDA:2,_RNvMs_NtNtCsg0Tzsq7wD3a_11metrovector6vector9dimensionNtB4_14DimensionSlice11iter_values
FNDA:6,_RNvMs_NtNtCsg0Tzsq7wD3a_11metrovector6vector9dimensionNtB4_14DimensionSlice9get_value
FNDA:5,_RNvXs1_NtNtCsg0Tzsq7wD3a_11metrovector6vector9dimensionNtB5_22DimensionValueIteratorNtNtNtNtCs9sjCchOt1K7_4core4iter6traits8iterator8Iterator4next
FNDA:0,_RNvMNtNtCsiiIhjJT0zrc_11metrovector6vector9dimensionNtB2_14DimensionSlice3new
FNDA:0,_RNvMs0_NtNtCsiiIhjJT0zrc_11metrovector6vector9dimensionNtB5_22DimensionValueIterator3new
FNDA:0,_RNvMs_NtNtCsiiIhjJT0zrc_11metrovector6vector9dimensionNtB4_14DimensionSlice11iter_values
FNDA:0,_RNvMs_NtNtCsiiIhjJT0zrc_11metrovector6vector9dimensionNtB4_14DimensionSlice9get_value
FNDA:0,_RNvXs1_NtNtCsiiIhjJT0zrc_11metrovector6vector9dimensionNtB5_22DimensionValueIteratorNtNtNtNtCs9sjCchOt1K7_4core4iter6traits8iterator8Iterator4next
FNF:5
FNH:5
DA:49,4
DA:50,4
DA:51,4
DA:52,4
DA:53,4
DA:54,4
DA:55,4
DA:56,4
DA:57,4
DA:58,4
DA:59,4
DA:60,4
DA:61,4
DA:62,4
DA:63,4
DA:64,4
DA:65,4
DA:66,4
DA:67,4
DA:68,4
DA:82,6
DA:83,6
DA:84,1
DA:85,1
DA:86,1
DA:87,1
DA:88,5
DA:89,5
DA:90,5
DA:91,5
DA:92,5
DA:93,5
DA:94,5
DA:95,0
DA:96,5
DA:98,5
DA:100,5
DA:101,5
DA:102,5
DA:103,5
DA:104,5
DA:105,5
DA:106,5
DA:109,0
DA:110,0
DA:113,0
DA:114,0
DA:115,0
DA:119,5
DA:120,6
DA:123,2
DA:124,2
DA:125,2
DA:136,2
DA:137,2
DA:138,2
DA:139,2
DA:140,2
DA:141,2
DA:147,5
DA:148,5
DA:149,2
DA:150,3
DA:151,3
DA:152,3
DA:153,3
DA:154,3
DA:155,5
BRF:0
BRH:0
LF:68
LH:62
end_of_record
SF:/home/solinaire/dev/personal/metrovector/src/vector/iterator.rs
FN:47,_RNvMNtNtCsg0Tzsq7wD3a_11metrovector6vector8iteratorNtB2_19VectorChunkIterator3new
FN:65,_RNvXs_NtNtCsg0Tzsq7wD3a_11metrovector6vector8iteratorNtB4_19VectorChunkIteratorNtNtNtNtCs9sjCchOt1K7_4core4iter6traits8iterator8Iterator4next
FN:47,_RNvMNtNtCsiiIhjJT0zrc_11metrovector6vector8iteratorNtB2_19VectorChunkIterator3new
FN:65,_RNvXs_NtNtCsiiIhjJT0zrc_11metrovector6vector8iteratorNtB4_19VectorChunkIteratorNtNtNtNtCs9sjCchOt1K7_4core4iter6traits8iterator8Iterator4next
FNDA:5,_RNvMNtNtCsg0Tzsq7wD3a_11metrovector6vector8iteratorNtB2_19VectorChunkIterator3new
FNDA:14,_RNvXs_NtNtCsg0Tzsq7wD3a_11metrovector6vector8iteratorNtB4_19VectorChunkIteratorNtNtNtNtCs9sjCchOt1K7_4core4iter6traits8iterator8Iterator4next
FNDA:0,_RNvMNtNtCsiiIhjJT0zrc_11metrovector6vector8iteratorNtB2_19VectorChunkIterator3new
FNDA:0,_RNvXs_NtNtCsiiIhjJT0zrc_11metrovector6vector8iteratorNtB4_19VectorChunkIteratorNtNtNtNtCs9sjCchOt1K7_4core4iter6traits8iterator8Iterator4next
FNF:2
FNH:2
DA:47,5
DA:48,5
DA:49,5
DA:50,5
DA:51,5
DA:52,5
DA:53,5
DA:54,5
DA:55,5
DA:56,5
DA:57,5
DA:58,5
DA:59,5
DA:65,14
DA:66,14
DA:67,5
DA:68,9
DA:69,9
DA:70,9
DA:71,9
DA:73,11
DA:74,11
DA:75,11
DA:76,0
DA:79,9
DA:80,9
DA:81,14
BRF:0
BRH:0
LF:27
LH:26
end_of_record
SF:/home/solinaire/dev/personal/metrovector/src/vector/mem.rs
FN:628,_RNCNvNtNtNtCsg0Tzsq7wD3a_11metrovector6vector3mem5testss_29test_get_vectors_with_pattern0B9_
FN:337,_RNCNvNtNtNtCsg0Tzsq7wD3a_11metrovector6vector3mem5testss_34test_vector_slice_element_iterator0B9_
FN:129,_RINvMNtNtCsg0Tzsq7wD3a_11metrovector6vector3memNtB3_11VectorSlice11get_elementfEB7_
FN:152,_RINvMNtNtCsg0Tzsq7wD3a_11metrovector6vector3memNtB3_11VectorSlice13iter_elementsfEB7_
FN:89,_RINvMNtNtCsg0Tzsq7wD3a_11metrovector6vector3memNtB3_11VectorSlice16as_aligned_slicefEB7_
FN:75,_RINvMNtNtCsg0Tzsq7wD3a_11metrovector6vector3memNtB3_11VectorSlice6as_ptrfEB7_
FN:198,_RNvMs_NtNtCsg0Tzsq7wD3a_11metrovector6vector3memINtB4_15ElementIteratorfE3newB8_
FN:213,_RNvXs0_NtNtCsg0Tzsq7wD3a_11metrovector6vector3memINtB5_15ElementIteratorfENtNtNtNtCs9sjCchOt1K7_4core4iter6traits8iterator8Iterator4nextB9_
FN:423,_RNvNtNtNtCsg0Tzsq7wD3a_11metrovector6vector3mem5testss_19test_vector_cast_to
FN:595,_RNvNtNtNtCsg0Tzsq7wD3a_11metrovector6vector3mem5testss_21test_clone_for_thread
FN:683,_RNvNtNtNtCsg0Tzsq7wD3a_11metrovector6vector3mem5testss_22test_vector_properties
FN:699,_RNvNtNtNtCsg0Tzsq7wD3a_11metrovector6vector3mem5testss_24test_vector_slice_as_ptr
FN:769,_RNvNtNtNtCsg0Tzsq7wD3a_11metrovector6vector3mem5testss_25test_vector_all_accessors
FN:517,_RNvNtNtNtCsg0Tzsq7wD3a_11metrovector6vector3mem5testss_25test_vector_cast_to_bytes
FN:387,_RNvNtNtNtCsg0Tzsq7wD3a_11metrovector6vector3mem5testss_26test_vector_simd_slice_f32
FN:236,_RNvNtNtNtCsg0Tzsq7wD3a_11metrovector6vector3mem5testss_26test_vector_slice_creation
FN:578,_RNvNtNtNtCsg0Tzsq7wD3a_11metrovector6vector3mem5testss_27test_map_vector_range_empty
FN:543,_RNvNtNtNtCsg0Tzsq7wD3a_11metrovector6vector3mem5testss_27test_map_vector_range_valid
FN:407,_RNvNtNtNtCsg0Tzsq7wD3a_11metrovector6vector3mem5testss_27test_vector_as_vector_slice
FN:747,_RNvNtNtNtCsg0Tzsq7wD3a_11metrovector6vector3mem5testss_28test_vector_slice_edge_cases
FN:536,_RNvNtNtNtCsg0Tzsq7wD3a_11metrovector6vector3mem5testss_28test_vector_slice_size_limit
FN:615,_RNvNtNtNtCsg0Tzsq7wD3a_11metrovector6vector3mem5testss_29test_get_vectors_with_pattern
FN:299,_RNvNtNtNtCsg0Tzsq7wD3a_11metrovector6vector3mem5testss_29test_vector_slice_get_element
FN:374,_RNvNtNtNtCsg0Tzsq7wD3a_11metrovector6vector3mem5testss_30test_vector_slice_element_size
FN:648,_RNvNtNtNtCsg0Tzsq7wD3a_11metrovector6vector3mem5testss_31test_vector_exact_size_iterator
FN:762,_RNvNtNtNtCsg0Tzsq7wD3a_11metrovector6vector3mem5testss_32test_unsupported_data_type_error
FN:245,_RNvNtNtNtCsg0Tzsq7wD3a_11metrovector6vector3mem5testss_32test_vector_slice_invalid_stride
FN:352,_RNvNtNtNtCsg0Tzsq7wD3a_11metrovector6vector3mem5testss_32test_vector_slice_simd_alignment
FN:450,_RNvNtNtNtCsg0Tzsq7wD3a_11metrovector6vector3mem5testss_33test_vector_cast_to_size_mismatch
FN:667,_RNvNtNtNtCsg0Tzsq7wD3a_11metrovector6vector3mem5testss_34test_vector_as_f32_different_types
FN:493,_RNvNtNtNtCsg0Tzsq7wD3a_11metrovector6vector3mem5testss_34test_vector_slice_alignment_checks
FN:256,_RNvNtNtNtCsg0Tzsq7wD3a_11metrovector6vector3mem5testss_34test_vector_slice_buffer_too_small
FN:327,_RNvNtNtNtCsg0Tzsq7wD3a_11metrovector6vector3mem5testss_34test_vector_slice_element_iterator
FN:632,_RNvNtNtNtCsg0Tzsq7wD3a_11metrovector6vector3mem5testss_35test_get_vectors_with_empty_pattern
FN:560,_RNvNtNtNtCsg0Tzsq7wD3a_11metrovector6vector3mem5testss_35test_map_vector_range_out_of_bounds
FN:474,_RNvNtNtNtCsg0Tzsq7wD3a_11metrovector6vector3mem5testss_35test_vector_cast_to_alignment_error
FN:732,_RNvNtNtNtCsg0Tzsq7wD3a_11metrovector6vector3mem5testss_36test_element_iterator_error_handling
FN:266,_RNvNtNtNtCsg0Tzsq7wD3a_11metrovector6vector3mem5testss_38test_vector_slice_as_aligned_slice_f32
FN:715,_RNvNtNtNtCsg0Tzsq7wD3a_11metrovector6vector3mem5testss_38test_vector_slice_different_data_types
FN:343,_RNvNtNtNtCsg0Tzsq7wD3a_11metrovector6vector3mem5testss_40test_vector_slice_element_iterator_empty
FN:290,_RNvNtNtNtCsg0Tzsq7wD3a_11metrovector6vector3mem5testss_42test_vector_slice_as_aligned_slice_strided
FN:318,_RNvNtNtNtCsg0Tzsq7wD3a_11metrovector6vector3mem5testss_43test_vector_slice_get_element_out_of_bounds
FN:276,_RNvNtNtNtCsg0Tzsq7wD3a_11metrovector6vector3mem5testss_48test_vector_slice_as_aligned_slice_type_mismatch
FN:178,_RNvMNtNtCsg0Tzsq7wD3a_11metrovector6vector3memNtB2_11VectorSlice12element_size
FN:163,_RNvMNtNtCsg0Tzsq7wD3a_11metrovector6vector3memNtB2_11VectorSlice15is_simd_aligned
FN:172,_RNvMNtNtCsg0Tzsq7wD3a_11metrovector6vector3memNtB2_11VectorSlice19chunk_size_for_simd
FN:45,_RNvMNtNtCsg0Tzsq7wD3a_11metrovector6vector3memNtB2_11VectorSlice3new
FN:129,_RINvMNtNtCsiiIhjJT0zrc_11metrovector6vector3memNtB3_11VectorSlice11get_elementpEB7_
FN:152,_RINvMNtNtCsiiIhjJT0zrc_11metrovector6vector3memNtB3_11VectorSlice13iter_elementspEB7_
FN:89,_RINvMNtNtCsiiIhjJT0zrc_11metrovector6vector3memNtB3_11VectorSlice16as_aligned_slicepEB7_
FN:75,_RINvMNtNtCsiiIhjJT0zrc_11metrovector6vector3memNtB3_11VectorSlice6as_ptrpEB7_
FN:198,_RNvMs_NtNtCsiiIhjJT0zrc_11metrovector6vector3memINtB4_15ElementIteratorpE3newB8_
FN:213,_RNvXININtNtCsiiIhjJT0zrc_11metrovector6vector3mems0_0pEINtB5_15ElementIteratorpENtNtNtNtCs9sjCchOt1K7_4core4iter6traits8iterator8Iterator4nextB9_
FN:178,_RNvMNtNtCsiiIhjJT0zrc_11metrovector6vector3memNtB2_11VectorSlice12element_size
FN:163,_RNvMNtNtCsiiIhjJT0zrc_11metrovector6vector3memNtB2_11VectorSlice15is_simd_aligned
FN:172,_RNvMNtNtCsiiIhjJT0zrc_11metrovector6vector3memNtB2_11VectorSlice19chunk_size_for_simd
FN:45,_RNvMNtNtCsiiIhjJT0zrc_11metrovector6vector3memNtB2_11VectorSlice3new
FNDA:3,_RNCNvNtNtNtCsg0Tzsq7wD3a_11metrovector6vector3mem5testss_29test_get_vectors_with_pattern0B9_
FNDA:3,_RNCNvNtNtNtCsg0Tzsq7wD3a_11metrovector6vector3mem5testss_34test_vector_slice_element_iterator0B9_
FNDA:9,_RINvMNtNtCsg0Tzsq7wD3a_11metrovector6vector3memNtB3_11VectorSlice11get_elementfEB7_
FNDA:3,_RINvMNtNtCsg0Tzsq7wD3a_11metrovector6vector3memNtB3_11VectorSlice13iter_elementsfEB7_
FNDA:5,_RINvMNtNtCsg0Tzsq7wD3a_11metrovector6vector3memNtB3_11VectorSlice16as_aligned_slicefEB7_
FNDA:1,_RINvMNtNtCsg0Tzsq7wD3a_11metrovector6vector3memNtB3_11VectorSlice6as_ptrfEB7_
FNDA:3,_RNvMs_NtNtCsg0Tzsq7wD3a_11metrovector6vector3memINtB4_15ElementIteratorfE3newB8_
FNDA:7,_RNvXs0_NtNtCsg0Tzsq7wD3a_11metrovector6vector3memINtB5_15ElementIteratorfENtNtNtNtCs9sjCchOt1K7_4core4iter6traits8iterator8Iterator4nextB9_
FNDA:1,_RNvNtNtNtCsg0Tzsq7wD3a_11metrovector6vector3mem5testss_19test_vector_cast_to
FNDA:1,_RNvNtNtNtCsg0Tzsq7wD3a_11metrovector6vector3mem5testss_21test_clone_for_thread
FNDA:1,_RNvNtNtNtCsg0Tzsq7wD3a_11metrovector6vector3mem5testss_22test_vector_properties
FNDA:1,_RNvNtNtNtCsg0Tzsq7wD3a_11metrovector6vector3mem5testss_24test_vector_slice_as_ptr
FNDA:1,_RNvNtNtNtCsg0Tzsq7wD3a_11metrovector6vector3mem5testss_25test_vector_all_accessors
FNDA:1,_RNvNtNtNtCsg0Tzsq7wD3a_11metrovector6vector3mem5testss_25test_vector_cast_to_bytes
FNDA:1,_RNvNtNtNtCsg0Tzsq7wD3a_11metrovector6vector3mem5testss_26test_vector_simd_slice_f32
FNDA:1,_RNvNtNtNtCsg0Tzsq7wD3a_11metrovector6vector3mem5testss_26test_vector_slice_creation
FNDA:1,_RNvNtNtNtCsg0Tzsq7wD3a_11metrovector6vector3mem5testss_27test_map_vector_range_empty
FNDA:1,_RNvNtNtNtCsg0Tzsq7wD3a_11metrovector6vector3mem5testss_27test_map_vector_range_valid
FNDA:1,_RNvNtNtNtCsg0Tzsq7wD3a_11metrovector6vector3mem5testss_27test_vector_as_vector_slice
FNDA:1,_RNvNtNtNtCsg0Tzsq7wD3a_11metrovector6vector3mem5testss_28test_vector_slice_edge_cases
FNDA:1,_RNvNtNtNtCsg0Tzsq7wD3a_11metrovector6vector3mem5testss_28test_vector_slice_size_limit
FNDA:1,_RNvNtNtNtCsg0Tzsq7wD3a_11metrovector6vector3mem5testss_29test_get_vectors_with_pattern
FNDA:1,_RNvNtNtNtCsg0Tzsq7wD3a_11metrovector6vector3mem5testss_29test_vector_slice_get_element
FNDA:1,_RNvNtNtNtCsg0Tzsq7wD3a_11metrovector6vector3mem5testss_30test_vector_slice_element_size
FNDA:1,_RNvNtNtNtCsg0Tzsq7wD3a_11metrovector6vector3mem5testss_31test_vector_exact_size_iterator
FNDA:1,_RNvNtNtNtCsg0Tzsq7wD3a_11metrovector6vector3mem5testss_32test_unsupported_data_type_error
FNDA:1,_RNvNtNtNtCsg0Tzsq7wD3a_11metrovector6vector3mem5testss_32test_vector_slice_invalid_stride
FNDA:1,_RNvNtNtNtCsg0Tzsq7wD3a_11metrovector6vector3mem5testss_32test_vector_slice_simd_alignment
FNDA:1,_RNvNtNtNtCsg0Tzsq7wD3a_11metrovector6vector3mem5testss_33test_vector_cast_to_size_mismatch
FNDA:1,_RNvNtNtNtCsg0Tzsq7wD3a_11metrovector6vector3mem5testss_34test_vector_as_f32_different_types
FNDA:1,_RNvNtNtNtCsg0Tzsq7wD3a_11metrovector6vector3mem5testss_34test_vector_slice_alignment_checks
FNDA:1,_RNvNtNtNtCsg0Tzsq7wD3a_11metrovector6vector3mem5testss_34test_vector_slice_buffer_too_small
FNDA:1,_RNvNtNtNtCsg0Tzsq7wD3a_11metrovector6vector3mem5testss_34test_vector_slice_element_iterator
FNDA:1,_RNvNtNtNtCsg0Tzsq7wD3a_11metrovector6vector3mem5testss_35test_get_vectors_with_empty_pattern
FNDA:1,_RNvNtNtNtCsg0Tzsq7wD3a_11metrovector6vector3mem5testss_35test_map_vector_range_out_of_bounds
FNDA:1,_RNvNtNtNtCsg0Tzsq7wD3a_11metrovector6vector3mem5testss_35test_vector_cast_to_alignment_error
FNDA:1,_RNvNtNtNtCsg0Tzsq7wD3a_11metrovector6vector3mem5testss_36test_element_iterator_error_handling
FNDA:1,_RNvNtNtNtCsg0Tzsq7wD3a_11metrovector6vector3mem5testss_38test_vector_slice_as_aligned_slice_f32
FNDA:1,_RNvNtNtNtCsg0Tzsq7wD3a_11metrovector6vector3mem5testss_38test_vector_slice_different_data_types
FNDA:1,_RNvNtNtNtCsg0Tzsq7wD3a_11metrovector6vector3mem5testss_40test_vector_slice_element_iterator_empty
FNDA:1,_RNvNtNtNtCsg0Tzsq7wD3a_11metrovector6vector3mem5testss_42test_vector_slice_as_aligned_slice_strided
FNDA:1,_RNvNtNtNtCsg0Tzsq7wD3a_11metrovector6vector3mem5testss_43test_vector_slice_get_element_out_of_bounds
FNDA:1,_RNvNtNtNtCsg0Tzsq7wD3a_11metrovector6vector3mem5testss_48test_vector_slice_as_aligned_slice_type_mismatch
FNDA:36,_RNvMNtNtCsg0Tzsq7wD3a_11metrovector6vector3memNtB2_11VectorSlice12element_size
FNDA:1,_RNvMNtNtCsg0Tzsq7wD3a_11metrovector6vector3memNtB2_11VectorSlice15is_simd_aligned
FNDA:4,_RNvMNtNtCsg0Tzsq7wD3a_11metrovector6vector3memNtB2_11VectorSlice19chunk_size_for_simd
FNDA:23,_RNvMNtNtCsg0Tzsq7wD3a_11metrovector6vector3memNtB2_11VectorSlice3new
FNDA:0,_RINvMNtNtCsiiIhjJT0zrc_11metrovector6vector3memNtB3_11VectorSlice11get_elementpEB7_
FNDA:0,_RINvMNtNtCsiiIhjJT0zrc_11metrovector6vector3memNtB3_11VectorSlice13iter_elementspEB7_
FNDA:0,_RINvMNtNtCsiiIhjJT0zrc_11metrovector6vector3memNtB3_11VectorSlice16as_aligned_slicepEB7_
FNDA:0,_RINvMNtNtCsiiIhjJT0zrc_11metrovector6vector3memNtB3_11VectorSlice6as_ptrpEB7_
FNDA:0,_RNvMs_NtNtCsiiIhjJT0zrc_11metrovector6vector3memINtB4_15ElementIteratorpE3newB8_
FNDA:0,_RNvXININtNtCsiiIhjJT0zrc_11metrovector6vector3mems0_0pEINtB5_15ElementIteratorpENtNtNtNtCs9sjCchOt1K7_4core4iter6traits8iterator8Iterator4nextB9_
FNDA:0,_RNvMNtNtCsiiIhjJT0zrc_11metrovector6vector3memNtB2_11VectorSlice12element_size
FNDA:0,_RNvMNtNtCsiiIhjJT0zrc_11metrovector6vector3memNtB2_11VectorSlice15is_simd_aligned
FNDA:0,_RNvMNtNtCsiiIhjJT0zrc_11metrovector6vector3memNtB2_11VectorSlice19chunk_size_for_simd
FNDA:0,_RNvMNtNtCsiiIhjJT0zrc_11metrovector6vector3memNtB2_11VectorSlice3new
FNF:47
FNH:47
DA:45,23
DA:46,23
DA:47,23
DA:48,23
DA:49,23
DA:50,23
DA:51,23
DA:53,23
DA:54,1
DA:55,22
DA:56,22
DA:57,22
DA:58,1
DA:59,21
DA:60,21
DA:61,21
DA:62,21
DA:63,21
DA:64,21
DA:65,21
DA:66,21
DA:67,21
DA:68,23
DA:75,1
DA:76,1
DA:77,1
DA:89,5
DA:90,5
DA:91,5
DA:92,5
DA:93,5
DA:94,5
DA:95,5
DA:97,5
DA:98,2
DA:99,3
DA:100,3
DA:101,3
DA:102,3
DA:103,0
DA:104,3
DA:105,3
DA:106,3
DA:107,3
DA:108,2
DA:109,2
DA:110,2
DA:111,0
DA:112,2
DA:113,2
DA:114,2
DA:115,2
DA:117,1
DA:118,1
DA:119,1
DA:121,5
DA:129,9
DA:130,9
DA:131,9
DA:132,9
DA:133,9
DA:134,2
DA:135,2
DA:136,2
DA:137,2
DA:138,7
DA:139,7
DA:140,7
DA:141,7
DA:142,7
DA:143,7
DA:144,0
DA:145,7
DA:146,7
DA:147,7
DA:148,7
DA:149,9
DA:152,3
DA:153,3
DA:154,3
DA:155,3
DA:156,3
DA:157,3
DA:163,1
DA:164,1
DA:165,1
DA:166,1
DA:172,4
DA:173,4
DA:174,4
DA:175,4
DA:178,36
DA:180,36
DA:181,23
DA:182,5
DA:183,7
DA:184,1
DA:186,36
DA:198,3
DA:199,3
DA:200,3
DA:201,3
DA:202,3
DA:203,3
DA:204,3
DA:213,7
DA:214,7
DA:215,3
DA:216,4
DA:217,4
DA:218,4
DA:219,4
DA:220,4
DA:221,7
DA:236,1
DA:237,1
DA:238,1
DA:239,1
DA:240,1
DA:241,1
DA:242,1
DA:245,1
DA:246,1
DA:247,1
DA:248,1
DA:249,1
DA:250,1
DA:251,1
DA:252,1
DA:253,1
DA:256,1
DA:257,1
DA:258,1
DA:259,1
DA:260,1
DA:261,1
DA:262,1
DA:263,1
DA:266,1
DA:267,1
DA:268,1
DA:269,1
DA:270,1
DA:271,1
DA:272,1
DA:273,1
DA:276,1
DA:277,1
DA:278,1
DA:279,1
DA:280,1
DA:281,1
DA:282,1
DA:283,1
DA:284,1
DA:285,1
DA:286,1
DA:287,1
DA:290,1
DA:291,1
DA:292,1
DA:293,1
DA:294,1
DA:295,1
DA:296,1
DA:299,1
DA:300,1
DA:301,1
DA:302,1
DA:303,4
DA:304,4
DA:305,4
DA:306,4
DA:308,1
DA:309,1
DA:310,1
DA:311,1
DA:313,1
DA:314,1
DA:315,1
DA:318,1
DA:319,1
DA:320,1
DA:321,1
DA:322,1
DA:323,1
DA:324,1
DA:327,1
DA:328,1
DA:329,1
DA:330,3
DA:331,3
DA:332,3
DA:333,3
DA:335,1
DA:336,1
DA:337,3
DA:338,1
DA:339,1
DA:340,1
DA:343,1
DA:344,1
DA:345,1
DA:346,1
DA:347,1
DA:348,1
DA:349,1
DA:352,1
DA:353,1
DA:354,1
DA:355,1
DA:356,1
DA:357,1
DA:358,1
DA:359,1
DA:360,1
DA:361,1
DA:362,1
DA:363,1
DA:364,1
DA:365,1
DA:366,1
DA:367,1
DA:369,1
DA:370,1
DA:371,1
DA:374,1
DA:375,1
DA:376,1
DA:377,1
DA:378,1
DA:379,1
DA:380,1
DA:381,1
DA:382,1
DA:383,1
DA:384,1
DA:387,1
DA:388,1
DA:389,1
DA:390,1
DA:391,1
DA:392,1
DA:393,1
DA:394,1
DA:395,1
DA:396,1
DA:397,1
DA:398,1
DA:399,1
DA:400,0
DA:401,0
DA:402,0
DA:404,1
DA:407,1
DA:408,1
DA:409,1
DA:410,1
DA:411,1
DA:412,1
DA:413,1
DA:414,1
DA:415,1
DA:416,1
DA:417,1
DA:418,1
DA:419,1
DA:420,1
DA:423,1
DA:424,1
DA:425,1
DA:426,1
DA:427,1
DA:428,1
DA:429,1
DA:430,1
DA:431,1
DA:432,1
DA:433,1
DA:434,1
DA:435,1
DA:438,1
DA:439,1
DA:440,1
DA:442,0
DA:443,0
DA:444,0
DA:445,0
DA:447,1
DA:450,1
DA:451,1
DA:452,1
DA:453,1
DA:454,1
DA:455,1
DA:456,1
DA:457,1
DA:458,1
DA:459,1
DA:460,1
DA:461,1
DA:462,1
DA:463,0
DA:464,0
DA:466,1
DA:467,1
DA:468,1
DA:469,0
DA:471,1
DA:474,1
DA:475,1
DA:476,1
DA:477,1
DA:478,1
DA:479,1
DA:480,1
DA:481,1
DA:482,1
DA:483,1
DA:484,1
DA:485,1
DA:486,1
DA:487,1
DA:488,1
DA:489,1
DA:490,1
DA:493,1
DA:494,1
DA:495,1
DA:497,4
DA:498,4
DA:499,4
DA:500,4
DA:502,1
DA:503,1
DA:504,1
DA:505,1
DA:506,1
DA:507,1
DA:509,0
DA:510,0
DA:511,0
DA:512,0
DA:514,1
DA:517,1
DA:518,1
DA:519,1
DA:520,1
DA:521,1
DA:522,1
DA:523,1
DA:524,1
DA:525,1
DA:526,1
DA:527,1
DA:528,1
DA:529,1
DA:530,1
DA:531,1
DA:532,1
DA:533,1
DA:536,1
DA:537,1
DA:538,1
DA:539,1
DA:540,1
DA:543,1
DA:544,1
DA:545,1
DA:546,1
DA:547,1
DA:548,1
DA:549,1
DA:550,1
DA:551,1
DA:552,1
DA:553,1
DA:554,1
DA:555,1
DA:556,1
DA:557,1
DA:560,1
DA:561,1
DA:562,1
DA:563,1
DA:564,1
DA:565,1
DA:566,1
DA:567,1
DA:568,1
DA:569,1
DA:570,1
DA:571,1
DA:572,1
DA:573,1
DA:574,1
DA:575,1
DA:578,1
DA:579,1
DA:580,1
DA:581,1
DA:582,1
DA:583,1
DA:584,1
DA:585,1
DA:586,1
DA:587,1
DA:588,1
DA:589,1
DA:590,1
DA:591,1
DA:592,1
DA:595,1
DA:596,1
DA:597,1
DA:598,1
DA:599,1
DA:600,1
DA:601,1
DA:602,1
DA:603,1
DA:604,1
DA:605,1
DA:606,1
DA:607,1
DA:608,1
DA:609,1
DA:610,1
DA:611,1
DA:612,1
DA:615,1
DA:616,1
DA:617,1
DA:618,1
DA:619,1
DA:620,1
DA:621,1
DA:622,1
DA:623,1
DA:624,1
DA:625,1
DA:626,1
DA:627,1
DA:628,3
DA:629,1
DA:632,1
DA:633,1
DA:634,1
DA:635,1
DA:636,1
DA:637,1
DA:638,1
DA:639,1
DA:640,1
DA:641,1
DA:642,1
DA:643,1
DA:644,1
DA:645,1
DA:648,1
DA:649,1
DA:650,1
DA:651,1
DA:652,1
DA:653,1
DA:654,1
DA:655,1
DA:656,1
DA:657,1
DA:658,3
DA:659,3
DA:660,3
DA:661,3
DA:663,1
DA:664,1
DA:667,1
DA:668,1
DA:669,1
DA:670,1
DA:671,1
DA:672,1
DA:673,1
DA:674,1
DA:675,1
DA:676,1
DA:677,1
DA:678,1
DA:679,1
DA:680,1
DA:683,1
DA:684,1
DA:685,1
DA:686,1
DA:687,1
DA:688,1
DA:689,1
DA:690,1
DA:691,1
DA:692,1
DA:693,1
DA:694,1
DA:695,1
DA:696,1
DA:699,1
DA:700,1
DA:701,1
DA:702,1
DA:703,1
DA:704,1
DA:708,1
DA:709,1
DA:710,1
DA:712,1
DA:715,1
DA:716,1
DA:717,1
DA:718,1
DA:719,1
DA:722,1
DA:723,1
DA:724,1
DA:727,1
DA:728,1
DA:729,1
DA:732,1
DA:733,1
DA:734,1
DA:735,1
DA:736,1
DA:737,1
DA:738,1
DA:739,1
DA:740,1
DA:743,1
DA:744,1
DA:747,1
DA:748,1
DA:749,1
DA:750,1
DA:751,1
DA:754,1
DA:755,1
DA:757,1
DA:758,1
DA:759,1
DA:762,1
DA:763,1
DA:764,1
DA:765,1
DA:766,1
DA:769,1
DA:770,1
DA:771,1
DA:772,1
DA:773,1
DA:774,1
DA:775,1
DA:776,1
DA:777,1
DA:778,1
DA:779,1
DA:780,1
DA:781,1
DA:782,1
DA:784,1
DA:785,1
DA:788,1
DA:789,1
DA:790,1
BRF:0
BRH:0
LF:571
LH:554
end_of_record
SF:/home/solinaire/dev/personal/metrovector/src/vector/vector.rs
FN:128,_RINvMNtNtCsg0Tzsq7wD3a_11metrovector6vector6vectorNtB3_6Vector13as_simd_slicefEB7_
FN:183,_RINvMNtNtCsg0Tzsq7wD3a_11metrovector6vector6vectorNtB3_6Vector7cast_tofEB7_
FN:183,_RINvMNtNtCsg0Tzsq7wD3a_11metrovector6vector6vectorNtB3_6Vector7cast_tohEB7_
FN:183,_RINvMNtNtCsg0Tzsq7wD3a_11metrovector6vector6vectorNtB3_6Vector7cast_tooEB7_
FN:183,_RINvMNtNtCsg0Tzsq7wD3a_11metrovector6vector6vectorNtB3_6Vector7cast_toyEB7_
FN:104,_RINvMNtNtCsg0Tzsq7wD3a_11metrovector6vector6vectorNtB3_6Vector8as_slicefEB7_
FN:153,_RNvMNtNtCsg0Tzsq7wD3a_11metrovector6vector6vectorNtB2_6Vector15as_vector_slice
FN:41,_RNvMNtNtCsg0Tzsq7wD3a_11metrovector6vector6vectorNtB2_6Vector3new
FN:71,_RNvMNtNtCsg0Tzsq7wD3a_11metrovector6vector6vectorNtB2_6Vector6as_f32
FN:61,_RNvMNtNtCsg0Tzsq7wD3a_11metrovector6vector6vectorNtB2_6Vector8as_bytes
FN:56,_RNvMNtNtCsg0Tzsq7wD3a_11metrovector6vector6vectorNtB2_6Vector9data_type
FN:51,_RNvMNtNtCsg0Tzsq7wD3a_11metrovector6vector6vectorNtB2_6Vector9dimension
FN:229,_RNvNtNtNtCsg0Tzsq7wD3a_11metrovector6vector6vector5testss_26test_vector_as_f32_float16
FN:219,_RNvNtNtNtCsg0Tzsq7wD3a_11metrovector6vector6vector5testss_32test_vector_as_slice_error_cases
FN:245,_RNvNtNtNtCsg0Tzsq7wD3a_11metrovector6vector6vector5testss_35test_vector_as_f32_unsupported_type
FN:272,_RNvNtNtNtCsg0Tzsq7wD3a_11metrovector6vector6vector5testss_35test_vector_cast_to_slice_too_large
FN:254,_RNvNtNtNtCsg0Tzsq7wD3a_11metrovector6vector6vector5testss_39test_vector_as_simd_slice_size_mismatch
FN:263,_RNvNtNtNtCsg0Tzsq7wD3a_11metrovector6vector6vector5testss_44test_vector_as_vector_slice_unsupported_type
FN:104,_RINvMNtNtCsiiIhjJT0zrc_11metrovector6vector6vectorNtB3_6Vector8as_slicefECs6ar4RpNs37j_10data_types
FN:128,_RINvMNtNtCsiiIhjJT0zrc_11metrovector6vector6vectorNtB3_6Vector13as_simd_slicepEB7_
FN:183,_RINvMNtNtCsiiIhjJT0zrc_11metrovector6vector6vectorNtB3_6Vector7cast_topEB7_
FN:104,_RINvMNtNtCsiiIhjJT0zrc_11metrovector6vector6vectorNtB3_6Vector8as_slicepEB7_
FN:153,_RNvMNtNtCsiiIhjJT0zrc_11metrovector6vector6vectorNtB2_6Vector15as_vector_slice
FN:41,_RNvMNtNtCsiiIhjJT0zrc_11metrovector6vector6vectorNtB2_6Vector3new
FN:71,_RNvMNtNtCsiiIhjJT0zrc_11metrovector6vector6vectorNtB2_6Vector6as_f32
FN:61,_RNvMNtNtCsiiIhjJT0zrc_11metrovector6vector6vectorNtB2_6Vector8as_bytes
FN:56,_RNvMNtNtCsiiIhjJT0zrc_11metrovector6vector6vectorNtB2_6Vector9data_type
FN:51,_RNvMNtNtCsiiIhjJT0zrc_11metrovector6vector6vectorNtB2_6Vector9dimension
FNDA:2,_RINvMNtNtCsg0Tzsq7wD3a_11metrovector6vector6vectorNtB3_6Vector13as_simd_slicefEB7_
FNDA:1,_RINvMNtNtCsg0Tzsq7wD3a_11metrovector6vector6vectorNtB3_6Vector7cast_tofEB7_
FNDA:3,_RINvMNtNtCsg0Tzsq7wD3a_11metrovector6vector6vectorNtB3_6Vector7cast_tohEB7_
FNDA:1,_RINvMNtNtCsg0Tzsq7wD3a_11metrovector6vector6vectorNtB3_6Vector7cast_tooEB7_
FNDA:1,_RINvMNtNtCsg0Tzsq7wD3a_11metrovector6vector6vectorNtB3_6Vector7cast_toyEB7_
FNDA:1,_RINvMNtNtCsg0Tzsq7wD3a_11metrovector6vector6vectorNtB3_6Vector8as_slicefEB7_
FNDA:3,_RNvMNtNtCsg0Tzsq7wD3a_11metrovector6vector6vectorNtB2_6Vector15as_vector_slice
FNDA:36,_RNvMNtNtCsg0Tzsq7wD3a_11metrovector6vector6vectorNtB2_6Vector3new
FNDA:4,_RNvMNtNtCsg0Tzsq7wD3a_11metrovector6vector6vectorNtB2_6Vector6as_f32
FNDA:2,_RNvMNtNtCsg0Tzsq7wD3a_11metrovector6vector6vectorNtB2_6Vector8as_bytes
FNDA:6,_RNvMNtNtCsg0Tzsq7wD3a_11metrovector6vector6vectorNtB2_6Vector9data_type
FNDA:10,_RNvMNtNtCsg0Tzsq7wD3a_11metrovector6vector6vectorNtB2_6Vector9dimension
FNDA:1,_RNvNtNtNtCsg0Tzsq7wD3a_11metrovector6vector6vector5testss_26test_vector_as_f32_float16
FNDA:1,_RNvNtNtNtCsg0Tzsq7wD3a_11metrovector6vector6vector5testss_32test_vector_as_slice_error_cases
FNDA:1,_RNvNtNtNtCsg0Tzsq7wD3a_11metrovector6vector6vector5testss_35test_vector_as_f32_unsupported_type
FNDA:1,_RNvNtNtNtCsg0Tzsq7wD3a_11metrovector6vector6vector5testss_35test_vector_cast_to_slice_too_large
FNDA:1,_RNvNtNtNtCsg0Tzsq7wD3a_11metrovector6vector6vector5testss_39test_vector_as_simd_slice_size_mismatch
FNDA:1,_RNvNtNtNtCsg0Tzsq7wD3a_11metrovector6vector6vector5testss_44test_vector_as_vector_slice_unsupported_type
FNDA:0,_RINvMNtNtCsiiIhjJT0zrc_11metrovector6vector6vectorNtB3_6Vector8as_slicefECs6ar4RpNs37j_10data_types
FNDA:0,_RINvMNtNtCsiiIhjJT0zrc_11metrovector6vector6vectorNtB3_6Vector13as_simd_slicepEB7_
FNDA:0,_RINvMNtNtCsiiIhjJT0zrc_11metrovector6vector6vectorNtB3_6Vector7cast_topEB7_
FNDA:0,_RINvMNtNtCsiiIhjJT0zrc_11metrovector6vector6vectorNtB3_6Vector8as_slicepEB7_
FNDA:0,_RNvMNtNtCsiiIhjJT0zrc_11metrovector6vector6vectorNtB2_6Vector15as_vector_slice
FNDA:0,_RNvMNtNtCsiiIhjJT0zrc_11metrovector6vector6vectorNtB2_6Vector3new
FNDA:0,_RNvMNtNtCsiiIhjJT0zrc_11metrovector6vector6vectorNtB2_6Vector6as_f32
FNDA:0,_RNvMNtNtCsiiIhjJT0zrc_11metrovector6vector6vectorNtB2_6Vector8as_bytes
FNDA:0,_RNvMNtNtCsiiIhjJT0zrc_11metrovector6vector6vectorNtB2_6Vector9data_type
FNDA:0,_RNvMNtNtCsiiIhjJT0zrc_11metrovector6vector6vectorNtB2_6Vector9dimension
FNF:15
FNH:15
DA:41,36
DA:42,36
DA:43,36
DA:44,36
DA:45,36
DA:46,36
DA:47,36
DA:48,36
DA:51,10
DA:52,10
DA:53,10
DA:56,6
DA:57,6
DA:58,6
DA:61,2
DA:62,2
DA:63,2
DA:71,4
DA:72,4
DA:74,2
DA:75,8
DA:76,8
DA:77,8
DA:78,8
DA:79,2
DA:82,1
DA:83,2
DA:84,2
DA:85,2
DA:86,2
DA:87,2
DA:88,1
DA:90,1
DA:92,4
DA:104,1
DA:105,1
DA:106,1
DA:107,1
DA:108,1
DA:109,1
DA:110,1
DA:111,0
DA:112,0
DA:113,0
DA:114,0
DA:115,0
DA:116,0
DA:117,0
DA:118,0
DA:119,1
DA:128,2
DA:129,2
DA:130,2
DA:131,2
DA:132,2
DA:133,2
DA:134,2
DA:135,2
DA:136,1
DA:137,1
DA:138,1
DA:139,1
DA:140,1
DA:141,1
DA:142,0
DA:143,1
DA:144,1
DA:145,1
DA:146,1
DA:147,2
DA:153,3
DA:155,3
DA:156,2
DA:157,0
DA:158,0
DA:159,1
DA:162,2
DA:163,2
DA:164,2
DA:165,2
DA:166,2
DA:167,2
DA:168,3
DA:183,6
DA:184,6
DA:185,6
DA:186,6
DA:187,6
DA:188,6
DA:189,6
DA:190,0
DA:191,6
DA:192,6
DA:193,6
DA:194,6
DA:195,1
DA:196,5
DA:197,5
DA:198,5
DA:199,5
DA:200,5
DA:201,5
DA:202,0
DA:203,5
DA:204,5
DA:205,5
DA:206,6
DA:219,1
DA:220,1
DA:221,1
DA:222,1
DA:223,1
DA:224,1
DA:225,1
DA:226,1
DA:229,1
DA:230,1
DA:231,1
DA:232,1
DA:233,1
DA:234,1
DA:235,1
DA:236,1
DA:237,1
DA:238,1
DA:239,1
DA:240,1
DA:241,1
DA:242,1
DA:245,1
DA:246,1
DA:247,1
DA:248,1
DA:249,1
DA:250,1
DA:251,1
DA:254,1
DA:255,1
DA:256,1
DA:257,1
DA:258,1
DA:259,1
DA:260,1
DA:263,1
DA:264,1
DA:265,1
DA:266,1
DA:267,1
DA:268,1
DA:269,1
DA:272,1
DA:273,1
DA:274,1
DA:275,1
DA:276,1
DA:277,1
DA:278,1
DA:279,1
DA:280,1
DA:283,1
DA:284,1
DA:285,1
BRF:0
BRH:0
LF:162
LH:148
end_of_record
SF:/home/solinaire/dev/personal/metrovector/src/vector/vector_space.rs
FN:262,_RNvMNtNtCsg0Tzsq7wD3a_11metrovector6vector12vector_spaceNtB2_11VectorSpace22prepare_access_pattern
FN:330,_RNvXs_NtNtCsg0Tzsq7wD3a_11metrovector6vector12vector_spaceNtB4_14VectorIteratorNtNtNtNtCs9sjCchOt1K7_4core4iter6traits8iterator8Iterator4next
FN:340,_RNvXs_NtNtCsg0Tzsq7wD3a_11metrovector6vector12vector_spaceNtB4_14VectorIteratorNtNtNtNtCs9sjCchOt1K7_4core4iter6traits8iterator8Iterator9size_hint
FN:559,_RNCNvNtNtNtCsg0Tzsq7wD3a_11metrovector6vector12vector_space5testss_29test_dimension_slice_iterator0B9_
FN:101,_RNvMNtNtCsg0Tzsq7wD3a_11metrovector6vector12vector_spaceNtB2_11VectorSpace10get_vector
FN:77,_RNvMNtNtCsg0Tzsq7wD3a_11metrovector6vector12vector_spaceNtB2_11VectorSpace11vector_type
FN:72,_RNvMNtNtCsg0Tzsq7wD3a_11metrovector6vector12vector_spaceNtB2_11VectorSpace13total_vectors
FN:251,_RNvMNtNtCsg0Tzsq7wD3a_11metrovector6vector12vector_spaceNtB2_11VectorSpace14stream_vectors
FN:82,_RNvMNtNtCsg0Tzsq7wD3a_11metrovector6vector12vector_spaceNtB2_11VectorSpace15distance_metric
FN:194,_RNvMNtNtCsg0Tzsq7wD3a_11metrovector6vector12vector_spaceNtB2_11VectorSpace16clone_concurrent
FN:155,_RNvMNtNtCsg0Tzsq7wD3a_11metrovector6vector12vector_spaceNtB2_11VectorSpace16map_vector_range
FN:230,_RNvMNtNtCsg0Tzsq7wD3a_11metrovector6vector12vector_spaceNtB2_11VectorSpace17get_vectors_batch
FN:279,_RNvMNtNtCsg0Tzsq7wD3a_11metrovector6vector12vector_spaceNtB2_11VectorSpace19get_dimension_slice
FN:210,_RNvMNtNtCsg0Tzsq7wD3a_11metrovector6vector12vector_spaceNtB2_11VectorSpace24get_vectors_with_pattern
FN:47,_RNvMNtNtCsg0Tzsq7wD3a_11metrovector6vector12vector_spaceNtB2_11VectorSpace3new
FN:62,_RNvMNtNtCsg0Tzsq7wD3a_11metrovector6vector12vector_spaceNtB2_11VectorSpace4name
FN:87,_RNvMNtNtCsg0Tzsq7wD3a_11metrovector6vector12vector_spaceNtB2_11VectorSpace9data_type
FN:67,_RNvMNtNtCsg0Tzsq7wD3a_11metrovector6vector12vector_spaceNtB2_11VectorSpace9dimension
FN:498,_RNvNtNtNtCsg0Tzsq7wD3a_11metrovector6vector12vector_space5testss_26test_dimension_slice_valid
FN:546,_RNvNtNtNtCsg0Tzsq7wD3a_11metrovector6vector12vector_space5testss_29test_dimension_slice_iterator
FN:357,_RNvNtNtNtCsg0Tzsq7wD3a_11metrovector6vector12vector_space5testss_30test_batch_vector_access_empty
FN:371,_RNvNtNtNtCsg0Tzsq7wD3a_11metrovector6vector12vector_space5testss_31test_batch_vector_access_single
FN:417,_RNvNtNtNtCsg0Tzsq7wD3a_11metrovector6vector12vector_space5testss_33test_vector_streaming_empty_range
FN:579,_RNvNtNtNtCsg0Tzsq7wD3a_11metrovector6vector12vector_space5testss_34test_dimension_value_out_of_bounds
FN:433,_RNvNtNtNtCsg0Tzsq7wD3a_11metrovector6vector12vector_space5testss_34test_vector_streaming_single_chunk
FN:400,_RNvNtNtNtCsg0Tzsq7wD3a_11metrovector6vector12vector_space5testss_35test_batch_vector_access_duplicates
FN:563,_RNvNtNtNtCsg0Tzsq7wD3a_11metrovector6vector12vector_space5testss_35test_dimension_slice_iterator_empty
FN:479,_RNvNtNtNtCsg0Tzsq7wD3a_11metrovector6vector12vector_space5testss_35test_vector_streaming_partial_range
FN:456,_RNvNtNtNtCsg0Tzsq7wD3a_11metrovector6vector12vector_space5testss_37test_vector_streaming_multiple_chunks
FN:386,_RNvNtNtNtCsg0Tzsq7wD3a_11metrovector6vector12vector_space5testss_38test_batch_vector_access_out_of_bounds
FN:531,_RNvNtNtNtCsg0Tzsq7wD3a_11metrovector6vector12vector_space5testss_42test_dimension_slice_out_of_bounds_vectors
FN:517,_RNvNtNtNtCsg0Tzsq7wD3a_11metrovector6vector12vector_space5testss_44test_dimension_slice_out_of_bounds_dimension
FN:101,_RNvMNtNtCsiiIhjJT0zrc_11metrovector6vector12vector_spaceNtB2_11VectorSpace10get_vector
FN:77,_RNvMNtNtCsiiIhjJT0zrc_11metrovector6vector12vector_spaceNtB2_11VectorSpace11vector_type
FN:72,_RNvMNtNtCsiiIhjJT0zrc_11metrovector6vector12vector_spaceNtB2_11VectorSpace13total_vectors
FN:251,_RNvMNtNtCsiiIhjJT0zrc_11metrovector6vector12vector_spaceNtB2_11VectorSpace14stream_vectors
FN:82,_RNvMNtNtCsiiIhjJT0zrc_11metrovector6vector12vector_spaceNtB2_11VectorSpace15distance_metric
FN:194,_RNvMNtNtCsiiIhjJT0zrc_11metrovector6vector12vector_spaceNtB2_11VectorSpace16clone_concurrent
FN:155,_RNvMNtNtCsiiIhjJT0zrc_11metrovector6vector12vector_spaceNtB2_11VectorSpace16map_vector_range
FN:230,_RNvMNtNtCsiiIhjJT0zrc_11metrovector6vector12vector_spaceNtB2_11VectorSpace17get_vectors_batch
FN:279,_RNvMNtNtCsiiIhjJT0zrc_11metrovector6vector12vector_spaceNtB2_11VectorSpace19get_dimension_slice
FN:262,_RNvMNtNtCsiiIhjJT0zrc_11metrovector6vector12vector_spaceNtB2_11VectorSpace22prepare_access_pattern
FN:210,_RNvMNtNtCsiiIhjJT0zrc_11metrovector6vector12vector_spaceNtB2_11VectorSpace24get_vectors_with_pattern
FN:47,_RNvMNtNtCsiiIhjJT0zrc_11metrovector6vector12vector_spaceNtB2_11VectorSpace3new
FN:62,_RNvMNtNtCsiiIhjJT0zrc_11metrovector6vector12vector_spaceNtB2_11VectorSpace4name
FN:87,_RNvMNtNtCsiiIhjJT0zrc_11metrovector6vector12vector_spaceNtB2_11VectorSpace9data_type
FN:67,_RNvMNtNtCsiiIhjJT0zrc_11metrovector6vector12vector_spaceNtB2_11VectorSpace9dimension
FN:330,_RNvXs_NtNtCsiiIhjJT0zrc_11metrovector6vector12vector_spaceNtB4_14VectorIteratorNtNtNtNtCs9sjCchOt1K7_4core4iter6traits8iterator8Iterator4next
FN:340,_RNvXs_NtNtCsiiIhjJT0zrc_11metrovector6vector12vector_spaceNtB4_14VectorIteratorNtNtNtNtCs9sjCchOt1K7_4core4iter6traits8iterator8Iterator9size_hint
FNDA:0,_RNvMNtNtCsg0Tzsq7wD3a_11metrovector6vector12vector_spaceNtB2_11VectorSpace22prepare_access_pattern
FNDA:0,_RNvXs_NtNtCsg0Tzsq7wD3a_11metrovector6vector12vector_spaceNtB4_14VectorIteratorNtNtNtNtCs9sjCchOt1K7_4core4iter6traits8iterator8Iterator4next
FNDA:0,_RNvXs_NtNtCsg0Tzsq7wD3a_11metrovector6vector12vector_spaceNtB4_14VectorIteratorNtNtNtNtCs9sjCchOt1K7_4core4iter6traits8iterator8Iterator9size_hint
FNDA:3,_RNCNvNtNtNtCsg0Tzsq7wD3a_11metrovector6vector12vector_space5testss_29test_dimension_slice_iterator0B9_
FNDA:31,_RNvMNtNtCsg0Tzsq7wD3a_11metrovector6vector12vector_spaceNtB2_11VectorSpace10get_vector
FNDA:1,_RNvMNtNtCsg0Tzsq7wD3a_11metrovector6vector12vector_spaceNtB2_11VectorSpace11vector_type
FNDA:56,_RNvMNtNtCsg0Tzsq7wD3a_11metrovector6vector12vector_spaceNtB2_11VectorSpace13total_vectors
FNDA:5,_RNvMNtNtCsg0Tzsq7wD3a_11metrovector6vector12vector_spaceNtB2_11VectorSpace14stream_vectors
FNDA:1,_RNvMNtNtCsg0Tzsq7wD3a_11metrovector6vector12vector_spaceNtB2_11VectorSpace15distance_metric
FNDA:1,_RNvMNtNtCsg0Tzsq7wD3a_11metrovector6vector12vector_spaceNtB2_11VectorSpace16clone_concurrent
FNDA:3,_RNvMNtNtCsg0Tzsq7wD3a_11metrovector6vector12vector_spaceNtB2_11VectorSpace16map_vector_range
FNDA:4,_RNvMNtNtCsg0Tzsq7wD3a_11metrovector6vector12vector_spaceNtB2_11VectorSpace17get_vectors_batch
FNDA:6,_RNvMNtNtCsg0Tzsq7wD3a_11metrovector6vector12vector_spaceNtB2_11VectorSpace19get_dimension_slice
FNDA:2,_RNvMNtNtCsg0Tzsq7wD3a_11metrovector6vector12vector_spaceNtB2_11VectorSpace24get_vectors_with_pattern
FNDA:31,_RNvMNtNtCsg0Tzsq7wD3a_11metrovector6vector12vector_spaceNtB2_11VectorSpace3new
FNDA:1,_RNvMNtNtCsg0Tzsq7wD3a_11metrovector6vector12vector_spaceNtB2_11VectorSpace4name
FNDA:73,_RNvMNtNtCsg0Tzsq7wD3a_11metrovector6vector12vector_spaceNtB2_11VectorSpace9data_type
FNDA:74,_RNvMNtNtCsg0Tzsq7wD3a_11metrovector6vector12vector_spaceNtB2_11VectorSpace9dimension
FNDA:1,_RNvNtNtNtCsg0Tzsq7wD3a_11metrovector6vector12vector_space5testss_26test_dimension_slice_valid
FNDA:1,_RNvNtNtNtCsg0Tzsq7wD3a_11metrovector6vector12vector_space5testss_29test_dimension_slice_iterator
FNDA:1,_RNvNtNtNtCsg0Tzsq7wD3a_11metrovector6vector12vector_space5testss_30test_batch_vector_access_empty
FNDA:1,_RNvNtNtNtCsg0Tzsq7wD3a_11metrovector6vector12vector_space5testss_31test_batch_vector_access_single
FNDA:1,_RNvNtNtNtCsg0Tzsq7wD3a_11metrovector6vector12vector_space5testss_33test_vector_streaming_empty_range
FNDA:1,_RNvNtNtNtCsg0Tzsq7wD3a_11metrovector6vector12vector_space5testss_34test_dimension_value_out_of_bounds
FNDA:1,_RNvNtNtNtCsg0Tzsq7wD3a_11metrovector6vector12vector_space5testss_34test_vector_streaming_single_chunk
FNDA:1,_RNvNtNtNtCsg0Tzsq7wD3a_11metrovector6vector12vector_space5testss_35test_batch_vector_access_duplicates
FNDA:1,_RNvNtNtNtCsg0Tzsq7wD3a_11metrovector6vector12vector_space5testss_35test_dimension_slice_iterator_empty
FNDA:1,_RNvNtNtNtCsg0Tzsq7wD3a_11metrovector6vector12vector_space5testss_35test_vector_streaming_partial_range
FNDA:1,_RNvNtNtNtCsg0Tzsq7wD3a_11metrovector6vector12vector_space5testss_37test_vector_streaming_multiple_chunks
FNDA:1,_RNvNtNtNtCsg0Tzsq7wD3a_11metrovector6vector12vector_space5testss_38test_batch_vector_access_out_of_bounds
FNDA:1,_RNvNtNtNtCsg0Tzsq7wD3a_11metrovector6vector12vector_space5testss_42test_dimension_slice_out_of_bounds_vectors
FNDA:1,_RNvNtNtNtCsg0Tzsq7wD3a_11metrovector6vector12vector_space5testss_44test_dimension_slice_out_of_bounds_dimension
FNDA:0,_RNvMNtNtCsiiIhjJT0zrc_11metrovector6vector12vector_spaceNtB2_11VectorSpace10get_vector
FNDA:0,_RNvMNtNtCsiiIhjJT0zrc_11metrovector6vector12vector_spaceNtB2_11VectorSpace11vector_type
FNDA:0,_RNvMNtNtCsiiIhjJT0zrc_11metrovector6vector12vector_spaceNtB2_11VectorSpace13total_vectors
FNDA:0,_RNvMNtNtCsiiIhjJT0zrc_11metrovector6vector12vector_spaceNtB2_11VectorSpace14stream_vectors
FNDA:0,_RNvMNtNtCsiiIhjJT0zrc_11metrovector6vector12vector_spaceNtB2_11VectorSpace15distance_metric
FNDA:0,_RNvMNtNtCsiiIhjJT0zrc_11metrovector6vector12vector_spaceNtB2_11VectorSpace16clone_concurrent
FNDA:0,_RNvMNtNtCsiiIhjJT0zrc_11metrovector6vector12vector_spaceNtB2_11VectorSpace16map_vector_range
FNDA:0,_RNvMNtNtCsiiIhjJT0zrc_11metrovector6vector12vector_spaceNtB2_11VectorSpace17get_vectors_batch
FNDA:0,_RNvMNtNtCsiiIhjJT0zrc_11metrovector6vector12vector_spaceNtB2_11VectorSpace19get_dimension_slice
FNDA:0,_RNvMNtNtCsiiIhjJT0zrc_11metrovector6vector12vector_spaceNtB2_11VectorSpace22prepare_access_pattern
FNDA:0,_RNvMNtNtCsiiIhjJT0zrc_11metrovector6vector12vector_spaceNtB2_11VectorSpace24get_vectors_with_pattern
FNDA:0,_RNvMNtNtCsiiIhjJT0zrc_11metrovector6vector12vector_spaceNtB2_11VectorSpace3new
FNDA:0,_RNvMNtNtCsiiIhjJT0zrc_11metrovector6vector12vector_spaceNtB2_11VectorSpace4name
FNDA:0,_RNvMNtNtCsiiIhjJT0zrc_11metrovector6vector12vector_spaceNtB2_11VectorSpace9data_type
FNDA:0,_RNvMNtNtCsiiIhjJT0zrc_11metrovector6vector12vector_spaceNtB2_11VectorSpace9dimension
FNDA:0,_RNvXs_NtNtCsiiIhjJT0zrc_11metrovector6vector12vector_spaceNtB4_14VectorIteratorNtNtNtNtCs9sjCchOt1K7_4core4iter6traits8iterator8Iterator4next
FNDA:0,_RNvXs_NtNtCsiiIhjJT0zrc_11metrovector6vector12vector_spaceNtB4_14VectorIteratorNtNtNtNtCs9sjCchOt1K7_4core4iter6traits8iterator8Iterator9size_hint
FNF:32
FNH:29
DA:47,31
DA:48,31
DA:49,31
DA:50,31
DA:51,31
DA:52,31
DA:53,31
DA:54,31
DA:55,31
DA:56,31
DA:57,31
DA:58,31
DA:59,31
DA:62,1
DA:63,1
DA:64,1
DA:67,74
DA:68,74
DA:69,74
DA:72,56
DA:73,56
DA:74,56
DA:77,1
DA:78,1
DA:79,1
DA:82,1
DA:83,1
DA:84,1
DA:87,73
DA:88,73
DA:89,73
DA:101,31
DA:102,31
DA:103,1
DA:104,1
DA:105,1
DA:106,1
DA:107,30
DA:108,30
DA:109,30
DA:110,30
DA:111,0
DA:112,30
DA:113,30
DA:114,30
DA:115,30
DA:116,30
DA:117,30
DA:118,30
DA:119,30
DA:120,30
DA:122,30
DA:123,30
DA:124,0
DA:125,0
DA:126,0
DA:129,30
DA:130,30
DA:131,30
DA:132,30
DA:133,0
DA:134,0
DA:135,0
DA:136,0
DA:137,30
DA:138,30
DA:139,30
DA:140,30
DA:141,30
DA:142,31
DA:155,3
DA:156,3
DA:157,1
DA:158,1
DA:159,1
DA:160,1
DA:161,2
DA:162,2
DA:163,2
DA:164,2
DA:165,2
DA:166,2
DA:167,2
DA:168,2
DA:170,2
DA:171,2
DA:172,0
DA:173,0
DA:174,0
DA:177,2
DA:178,2
DA:179,2
DA:180,2
DA:181,2
DA:182,0
DA:183,2
DA:184,2
DA:185,2
DA:186,2
DA:187,2
DA:188,3
DA:194,1
DA:195,1
DA:196,1
DA:197,1
DA:198,1
DA:199,1
DA:200,1
DA:201,1
DA:210,2
DA:211,2
DA:213,2
DA:214,1
DA:216,4
DA:217,3
DA:220,2
DA:221,2
DA:230,4
DA:231,4
DA:232,4
DA:233,4
DA:234,4
DA:236,7
DA:237,7
DA:240,3
DA:241,4
DA:251,5
DA:252,5
DA:253,5
DA:262,0
DA:263,0
DA:264,0
DA:279,6
DA:280,6
DA:281,1
DA:282,1
DA:283,1
DA:284,1
DA:285,5
DA:286,5
DA:287,5
DA:288,1
DA:289,1
DA:290,1
DA:291,1
DA:292,4
DA:293,4
DA:294,4
DA:295,4
DA:296,4
DA:297,4
DA:298,4
DA:299,4
DA:301,4
DA:302,4
DA:303,0
DA:304,0
DA:305,0
DA:308,4
DA:309,4
DA:310,4
DA:311,4
DA:312,4
DA:313,4
DA:314,4
DA:315,4
DA:316,4
DA:317,6
DA:330,0
DA:331,0
DA:332,0
DA:333,0
DA:334,0
DA:335,0
DA:336,0
DA:337,0
DA:338,0
DA:340,0
DA:341,0
DA:342,0
DA:343,0
DA:357,1
DA:358,1
DA:359,1
DA:360,1
DA:361,1
DA:362,1
DA:363,1
DA:364,1
DA:365,1
DA:366,1
DA:367,1
DA:368,1
DA:371,1
DA:372,1
DA:373,1
DA:374,1
DA:375,1
DA:376,1
DA:377,1
DA:378,1
DA:379,1
DA:380,1
DA:381,1
DA:382,1
DA:383,1
DA:386,1
DA:387,1
DA:388,1
DA:389,1
DA:390,1
DA:391,1
DA:392,1
DA:393,1
DA:394,1
DA:395,1
DA:396,1
DA:397,1
DA:400,1
DA:401,1
DA:402,1
DA:403,1
DA:404,1
DA:405,1
DA:406,1
DA:407,1
DA:408,1
DA:409,1
DA:410,1
DA:411,1
DA:412,1
DA:413,1
DA:414,1
DA:417,1
DA:418,1
DA:419,1
DA:420,1
DA:421,1
DA:422,1
DA:423,1
DA:424,1
DA:425,1
DA:426,1
DA:427,1
DA:428,1
DA:429,1
DA:430,1
DA:433,1
DA:434,1
DA:435,1
DA:436,1
DA:437,1
DA:438,1
DA:439,1
DA:440,1
DA:441,1
DA:442,1
DA:443,1
DA:445,1
DA:446,1
DA:447,1
DA:448,1
DA:449,1
DA:451,1
DA:452,1
DA:453,1
DA:456,1
DA:457,1
DA:458,1
DA:459,1
DA:460,1
DA:461,1
DA:462,1
DA:463,1
DA:464,1
DA:465,1
DA:466,1
DA:468,3
DA:469,3
DA:470,3
DA:471,3
DA:472,3
DA:474,1
DA:475,1
DA:476,1
DA:479,1
DA:480,1
DA:481,1
DA:482,1
DA:483,1
DA:484,1
DA:485,1
DA:486,1
DA:487,1
DA:488,1
DA:489,2
DA:490,2
DA:491,2
DA:492,2
DA:494,1
DA:495,1
DA:498,1
DA:499,1
DA:500,1
DA:501,1
DA:502,1
DA:503,1
DA:504,1
DA:505,1
DA:506,1
DA:507,1
DA:508,1
DA:509,1
DA:510,1
DA:511,1
DA:512,1
DA:513,1
DA:514,1
DA:517,1
DA:518,1
DA:519,1
DA:520,1
DA:521,1
DA:522,1
DA:523,1
DA:524,1
DA:525,1
DA:526,1
DA:527,1
DA:528,1
DA:531,1
DA:532,1
DA:533,1
DA:534,1
DA:535,1
DA:536,1
DA:537,1
DA:538,1
DA:539,1
DA:540,1
DA:541,1
DA:542,1
DA:543,1
DA:546,1
DA:547,1
DA:548,1
DA:549,1
DA:550,1
DA:551,1
DA:552,1
DA:553,1
DA:554,1
DA:555,1
DA:556,1
DA:557,1
DA:558,1
DA:559,3
DA:560,1
DA:563,1
DA:564,1
DA:565,1
DA:566,1
DA:567,1
DA:568,1
DA:569,1
DA:570,1
DA:571,1
DA:572,1
DA:573,1
DA:574,1
DA:575,1
DA:576,1
DA:579,1
DA:580,1
DA:581,1
DA:582,1
DA:583,1
DA:584,1
DA:585,1
DA:586,1
DA:587,1
DA:588,1
DA:589,1
DA:590,1
DA:591,1
BRF:0
BRH:0
LF:386
LH:355
end_of_record